STMicroelectronics list file postprocessor v1.01   (C)2009-2014   Sun Jul 06 23:27:10 2014
Page 1  Assembler
                                               e:\stm_project\stm8s105c6t6\assembler\project_2\general.asm

   1                         STM8/     
   2                         
   0  000000                                 #include "STM8S105C6.asm"
   1                         ;=============================================================
                               ;=======================
   2  000000                                 WORDS                  ; The following addresses are 16
                                                                ; bits long
   3                                   segment  byte at 4000-43FF 'EEPROM'
   4                         
   5  004000                                 WORDS                  ; The following addresses are 16
                                                                ; bits long
   6                                   segment  byte at 8080-FFFF 'ROM'
   7                         
   8  008080                                 WORDS                  ; The following addresses are 16
                                                                ; bits long
   9                                   segment  byte at 8000-807F 'INTERRUPT'
  10                         ;=============================================================
                               ;=======================
  11  005000                       PORTA     EQU      $5000
  12  005001                       PINA      EQU      $5001
  13  005002                       DDRA      EQU      $5002
  14  005003                       CR1A      EQU      $5003
  15  005004                       CR2A      EQU      $5004
  16                         ;=============================================================
                               ;=======================
  17  005005                       PORTB     EQU      $5005
  18  005006                       PINB      EQU      $5006
  19  005007                       DDRB      EQU      $5007
  20  005008                       CR1B      EQU      $5008
  21  005009                       CR2B      EQU      $5009
  22                         ;=============================================================
                               ;=======================
  23  00500A                       PORTC     EQU      $500A
  24  00500B                       PINC      EQU      $500B
  25  00500C                       DDRC      EQU      $500C
  26  00500D                       CR1C      EQU      $500D
  27  00500E                       CR2C      EQU      $500E
  28                         ;=============================================================
                               ;=======================
  29  00500F                       PORTD     EQU      $500F
  30  005010                       PIND      EQU      $5010
  31  005011                       DDRD      EQU      $5011
  32  005012                       CR1D      EQU      $5012
  33  005013                       CR2D      EQU      $5013
  34                         ;=============================================================
                               ;=======================
  35  005014                       PORTE     EQU      $5014
  36  005015                       PINE      EQU      $5015
  37  005016                       DDRE      EQU      $5016
  38  005017                       CR1E      EQU      $5017
  39  005018                       CR2E      EQU      $5018
  40                         ;=============================================================
                               ;=======================
  41  00501E                       PORTG     EQU      $501E
  42  00501F                       PING      EQU      $501F
  43  005020                       DDRG      EQU      $5020
  44  005021                       CR1G      EQU      $5021
STMicroelectronics list file postprocessor v1.01   (C)2009-2014   Sun Jul 06 23:27:10 2014
Page 2  Assembler
                                               e:\stm_project\stm8s105c6t6\assembler\project_2\general.asm

  45  005022                       CR2G      EQU      $5022
  46                         ;=============================================================
                               ;=======================
  47  0050A0                       EXTI_CR1  EQU      $50A0         ; External interrupt control 
                                                                ;register 1 
  48  0050A1                       EXTI_CR2  EQU      $50A1         ; External interrupt control 
                                                                ;register 2 
  49  0050B3                       RST_SR    EQU      $50B3         ; Reset status register 
  50                         ;=============================================================
                               ;=======================
  51  0050C0                       CLK_ICKR  EQU      $50C0         ; Internal clock control 
                                                                ;register         
  52  0050C1                       CLK_ECKR  EQU      $50C1         ; External clock control 
                                                                ;register         
  53  0050C3                       CLK_CMSR  EQU      $50C3         ; Clock master status register  
                                                                ;          
  54  0050C4                       CLK_SWR   EQU      $50C4         ; Clock master switch register  
                                                                ;          
  55  0050C5                       CLK_SWCR  EQU      $50C5         ; Clock switch control register 
                                                                ;          
  56  0050C6                       CLK_CKDIVR  EQU      $50C6         ; Clock divider register        
                                                                ;          
  57  0050C7                       CLK_PCKENR1  EQU      $50C7         ; Peripheral clock gating 
                                                                ;register 1      
  58  0050C8                       CLK_CSSR  EQU      $50C8         ; Clock security system register
                                                                ;          
  59  0050C9                       CLK_CCOR  EQU      $50C9         ; Configurable clock control 
                                                                ;register     
  60  0050CA                       CLK_PCKENR2  EQU      $50CA         ; Peripheral clock gating 
                                                                ;register 2      
  61  0050CB                       CLK_CANCCR  EQU      $50CB         ; CAN clock control register    
                                                                ;          
  62  0050CC                       CLK_HSITRIMR  EQU      $50CC         ; HSI clock calibration trimming
                                                                ; register 
  63  0050CD                       CLK_SWIMCCR  EQU      $50CD         ; SWIM clock control register   
                                                                ;          
  64                         ;=============================================================
                               ;=======================
  65  005230                       UART1_SR  EQU      $5230         ; UART1 status register       
  66  005231                       UART1_DR  EQU      $5231         ; UART1 data register         
  67  005232                       UART1_BRR1  EQU      $5232         ; UART1 baud rate register    
  68  005233                       UART1_BRR2  EQU      $5233         ; UART1 baud rate register    
  69  005234                       UART1_CR1  EQU      $5234         ; UART1 control register 1    
  70  005235                       UART1_CR2  EQU      $5235         ; UART1 control register 2    
  71  005236                       UART1_CR3  EQU      $5236         ; UART1 control register 3    
  72  005237                       UART1_CR4  EQU      $5237         ; UART1 control register 4    
  73  005238                       UART1_CR5  EQU      $5238         ; UART1 control register 5    
  74  005239                       UART1_GTR  EQU      $5239         ; UART1 guard time register   
  75  00523A                       UART1_PSCR  EQU      $523A         ; UART1 prescaler register    
  76                         ;=============================================================
                               ;=======================
  77  005200                       SPI_CR1   EQU      $5200         ; SPI control register 1        
                                                                ;  
  78  005201                       SPI_CR2   EQU      $5201         ; SPI control register 2        
                                                                ;  
  79  005202                       SPI_ICR   EQU      $5202         ; SPI interrupt control register
                                                                ; 
STMicroelectronics list file postprocessor v1.01   (C)2009-2014   Sun Jul 06 23:27:10 2014
Page 3  Assembler
                                               e:\stm_project\stm8s105c6t6\assembler\project_2\general.asm

  80  005203                       SPI_SR    EQU      $5203         ; SPI status register           
                                                                ;  
  81  005204                       SPI_DR    EQU      $5204         ; SPI data register             
                                                                ; 
  82  005205                       SPI_CRCPR  EQU      $5205         ; SPI CRC polynomial register   
                                                                ;  
  83  005206                       SPI_RXCRCR  EQU      $5206         ; SPI Rx CRC register           
                                                                ;  
  84  005207                       SPI_TXCRCR  EQU      $5207         ; SPI Tx CRC register           
                                                                ;  
  85                         ;=============================================================
                               ;=======================
  86  00505A                       FLASH_CR1  EQU      $505A         ; Flash control register 1      
                                                                ;                   
  87  00505B                       FLASH_CR2  EQU      $505B         ; Flash control register 2      
                                                                ;                   
  88  00505C                       FLASH_NCR2  EQU      $505C         ; Flash complementary control 
                                                                ;register 2           
  89  00505D                       FLASH_FPR  EQU      $505D         ; Flash protection register     
                                                                ;                   
  90  00505E                       FLASH_NFPR  EQU      $505E         ; Flash complementary protection
                                                                ; register          
  91  00505F                       FLASH_IAPSR  EQU      $505F         ; Flash in-application 
                                                                ;programming status register 
  92  005062                       FLASH_PUKR  EQU      $5062         ; Flash program memory 
                                                                ;unprotection register       
  93  005064                       FLASH_DUKR  EQU      $5064         ; Data EEPROM unprotection 
                                                                ;register                
  94                         ;=============================================================
                               ;=======================
  95  0050D1                       WWDG_CR   EQU      $50D1         ; WWDG control register         
                                                                ;             
  96  0050D2                       WWDG_WR   EQU      $50D2         ; WWDR window register          
                                                                ;             
  97  0050E0                       IWDG_KR   EQU      $50E0         ; IWDG key register             
                                                                ;             
  98  0050E1                       IWDG_PR   EQU      $50E1         ; IWDG prescaler register       
                                                                ;             
  99  0050E2                       IWDG_RLR  EQU      $50E2         ; IWDG reload register          
                                                                ;             
 100  0050F0                       AWU_CSR1  EQU      $50F0         ; AWU control/status register 1 
                                                                ;             
 101  0050F1                       AWU_APR   EQU      $50F1         ; AWU asynchronous prescaler 
                                                                ;buffer register 
 102  0050F2                       AWU_TBR   EQU      $50F2         ; AWU timebase selection 
                                                                ;register            
 103  0050F3                       BEEP_CSR  EQU      $50F3         ; BEEP control/status register  
                                                                ;             
 104                         ;=============================================================
                               ;=======================
 105  005250                       TIM1_CR1  EQU      $5250         ; TIM1 control register 1       
                                                                ;         
 106  005251                       TIM1_CR2  EQU      $5251         ; TIM1 control register 2       
                                                                ;         
 107  005252                       TIM1_SMCR  EQU      $5252         ; TIM1 slave mode control 
                                                                ;register       
 108  005253                       TIM1_ETR  EQU      $5253         ; TIM1 external trigger register
STMicroelectronics list file postprocessor v1.01   (C)2009-2014   Sun Jul 06 23:27:10 2014
Page 4  Assembler
                                               e:\stm_project\stm8s105c6t6\assembler\project_2\general.asm

                                                                ;         
 109  005254                       TIM1_IER  EQU      $5254         ; TIM1 interrupt enable register
                                                                ;         
 110  005255                       TIM1_SR1  EQU      $5255         ; TIM1 status register 1        
                                                                ;         
 111  005256                       TIM1_SR2  EQU      $5256         ; TIM1 status register 2        
                                                                ;         
 112  005257                       TIM1_EGR  EQU      $5257         ; TIM1 event generation register
                                                                ;         
 113  005258                       TIM1_CCMR1  EQU      $5258         ; TIM1 capture/compare mode 
                                                                ;register 1   
 114  005259                       TIM1_CCMR2  EQU      $5259         ; TIM1 capture/compare mode 
                                                                ;register 2   
 115  00525A                       TIM1_CCMR3  EQU      $525A         ; TIM1 capture/compare mode 
                                                                ;register 3   
 116  00525B                       TIM1_CCMR4  EQU      $525B         ; TIM1 capture/compare mode 
                                                                ;register 4   
 117  00525C                       TIM1_CCER1  EQU      $525C         ; TIM1 capture/compare enable 
                                                                ;register 1 
 118  00525D                       TIM1_CCER2  EQU      $525D         ; TIM1 capture/compare enable 
                                                                ;register 2 
 119  00525E                       TIM1_CNTRH  EQU      $525E         ; TIM1 counter high             
                                                                ;         
 120  00525F                       TIM1_CNTRL  EQU      $525F         ; TIM1 counter low              
                                                                ;         
 121  005260                       TIM1_PSCRH  EQU      $5260         ; TIM1 prescaler register high  
                                                                ;         
 122  005261                       TIM1_PSCRL  EQU      $5261         ; TIM1 prescaler register low   
                                                                ;         
 123  005262                       TIM1_ARRH  EQU      $5262         ; TIM1 auto-reload register high
                                                                ;         
 124  005263                       TIM1_ARRL  EQU      $5263         ; TIM1 auto-reload register low 
                                                                ;         
 125  005264                       TIM1_RCR  EQU      $5264         ; TIM1 repetition counter 
                                                                ;register       
 126  005265                       TIM1_CCR1H  EQU      $5265         ; TIM1 capture/compare register 
                                                                ;1 high   
 127  005266                       TIM1_CCR1L  EQU      $5266         ; TIM1 capture/compare register 
                                                                ;1 low    
 128  005267                       TIM1_CCR2H  EQU      $5267         ; TIM1 capture/compare register 
                                                                ;2 high   
 129  005268                       TIM1_CCR2L  EQU      $5268         ; TIM1 capture/compare register 
                                                                ;2 low    
 130  005269                       TIM1_CCR3H  EQU      $5269         ; TIM1 capture/compare register 
                                                                ;3 high   
 131  00526A                       TIM1_CCR3L  EQU      $526A         ; TIM1 capture/compare register 
                                                                ;3 low    
 132  00526B                       TIM1_CCR4H  EQU      $526B         ; TIM1 capture/compare register 
                                                                ;4 high   
 133  00526C                       TIM1_CCR4L  EQU      $526C         ; TIM1 capture/compare register 
                                                                ;4 low    
 134  00526D                       TIM1_BKR  EQU      $526D         ; TIM1 break register           
                                                                ;         
 135  00526E                       TIM1_DTR  EQU      $526E         ; TIM1 dead-time register       
                                                                ;         
 136  00526F                       TIM1_OISR  EQU      $526F         ; TIM1 output idle state 
                                                                ;register        
STMicroelectronics list file postprocessor v1.01   (C)2009-2014   Sun Jul 06 23:27:10 2014
Page 5  Assembler
                                               e:\stm_project\stm8s105c6t6\assembler\project_2\general.asm

 137                         ;=============================================================
                               ;=======================
 138  000000                       UIF       EQU      $0000
 139                         ;=============================================================
                               ;=======================
 140  005300                       TIM2_CR1  EQU      $5300         ; TIM2 control register 1       
                                                                ;          
 141  005301                       TIM2_IER  EQU      $5301         ; TIM2 Interrupt enable register
                                                                ;          
 142  005302                       TIM2_SR1  EQU      $5302         ; TIM2 status register 1        
                                                                ;          
 143  005303                       TIM2_SR2  EQU      $5303         ; TIM2 status register 2        
                                                                ;          
 144  005304                       TIM2_EGR  EQU      $5304         ; TIM2 event generation register
                                                                ;          
 145  005305                       TIM2_CCMR1  EQU      $5305         ; TIM2 capture/compare mode 
                                                                ;register 1    
 146  005306                       TIM2_CCMR2  EQU      $5306         ; TIM2 capture/compare mode 
                                                                ;register 2    
 147  005307                       TIM2_CCMR3  EQU      $5307         ; TIM2 capture/compare mode 
                                                                ;register 3    
 148  005308                       TIM2_CCER1  EQU      $5308         ; TIM2 capture/compare enable 
                                                                ;register 1  
 149  005309                       TIM2_CCER2  EQU      $5309         ; TIM2 capture/compare enable 
                                                                ;register 2  
 150  00530A                       TIM2_CNTRH  EQU      $530A         ; TIM2 counter high             
                                                                ;          
 151  00530B                       TIM2_CNTRL  EQU      $530B         ; TIM2 counter low              
                                                                ;          
 152  00530C                       TIM2_PSCR  EQU      $530C         ; TIM2 prescaler register       
                                                                ;          
 153  00530D                       TIM2_ARRH  EQU      $530D         ; TIM2 auto-reload register high
                                                                ;          
 154  00530E                       TIM2_ARRL  EQU      $530E         ; TIM2 auto-reload register low 
                                                                ;          
 155  00530F                       TIM2_CCR1H  EQU      $530F         ; TIM2 capture/compare register 
                                                                ;1 high    
 156  005310                       TIM2_CCR1L  EQU      $5310         ; TIM2 capture/compare register 
                                                                ;1 low     
 157  005311                       TIM2_CCR2H  EQU      $5311         ; TIM2 capture/compare reg. 2 
                                                                ;high        
 158  005312                       TIM2_CCR2L  EQU      $5312         ; TIM2 capture/compare register 
                                                                ;2 low     
 159  005313                       TIM2_CCR3H  EQU      $5313         ; TIM2 capture/compare register 
                                                                ;3 high    
 160  005314                       TIM2_CCR3L  EQU      $5314         ; TIM2 capture/compare register 
                                                                ;3 low     
 161                         ;=============================================================
                               ;=======================
 162  005320                       TIM3_CR1  EQU      $5320         ;TIM3 control register 1 
 163  005321                       TIM3_IER  EQU      $5321         ;TIM3 interrupt enable register
 164  005322                       TIM3_SR1  EQU      $5322         ;TIM3 status register 1 
 165  005323                       TIM3_SR2  EQU      $5323         ;TIM3 status register 2 
 166  005324                       TIM3_EGR  EQU      $5324         ;TIM3 event generation register 
                                                                ;
 167  005325                       TIM3_CCMR1  EQU      $5325         ;TIM3 capture/compare mode 
                                                                ;register 1 
STMicroelectronics list file postprocessor v1.01   (C)2009-2014   Sun Jul 06 23:27:10 2014
Page 6  Assembler
                                               e:\stm_project\stm8s105c6t6\assembler\project_2\general.asm

 168  005326                       TIM3_CCMR2  EQU      $5326         ;TIM3 capture/compare mode 
                                                                ;register 2
 169  005327                       TIM3_CCER1  EQU      $5327         ;TIM3 capture/compare enable 
                                                                ;register 1
 170  005328                       TIM3_CNTRH  EQU      $5328         ;TIM3 counter high
 171  005329                       TIM3_CNTRL  EQU      $5329         ;TIM3 counter low
 172  00532A                       TIM3_PSCR  EQU      $532A         ;TIM3 prescaler register 
 173  00532B                       TIM3_ARRH  EQU      $532B         ;TIM3 auto-reload register high
 174  00532C                       TIM3_ARRL  EQU      $532C         ;TIM3 auto-reload register low
 175  00532D                       TIM3_CCR1H  EQU      $532D         ;TIM3 capture/compare register 1
                                                                ; high
 176  00532E                       TIM3_CCR1L  EQU      $532E         ;TIM3 capture/compare register 1
                                                                ; low 
 177  00532F                       TIM3_CCR2H  EQU      $532F         ;TIM3 capture/compare register 2
                                                                ; high
 178  005330                       TIM3_CCR2L  EQU      $5330         ;TIM3 capture/compare register 2
                                                                ; low
 179                         ;=============================================================
                               ;=======================
 180  005340                       TIM4_CR1  EQU      $5340         ; TIM4 control register 1       
                                                                ;  
 181  005341                       TIM4_IER  EQU      $5341         ; TIM4 interrupt enable register
                                                                ;  
 182  005342                       TIM4_SR   EQU      $5342         ; TIM4 status register          
                                                                ;  
 183  005343                       TIM4_EGR  EQU      $5343         ; TIM4 event generation register
                                                                ;  
 184  005344                       TIM4_CNTR  EQU      $5344         ; TIM4 counter                  
                                                                ;  
 185  005345                       TIM4_PSCR  EQU      $5345         ; TIM4 prescaler register       
                                                                ;  
 186  005346                       TIM4_ARR  EQU      $5346         ; TIM4 auto-reload register     
                                                                ;  
 187                         ;=============================================================
                               ;=======================
 188  005400                       ADC_CSR   EQU      $5400         ; ADC control/status register   
                                                                ;             
 189  005401                       ADC_CR1   EQU      $5401         ; ADC configuration register 1  
                                                                ;             
 190  005402                       ADC_CR2   EQU      $5402         ; ADC configuration register 2  
                                                                ;             
 191  005403                       ADC_CR3   EQU      $5403         ; ADC configuration register 3  
                                                                ;             
 192  005404                       ADC_DRH   EQU      $5404         ; ADC data register high        
                                                                ;             
 193  005405                       ADC_DRL   EQU      $5405         ; ADC data register low         
                                                                ;             
 194  005406                       ADC_TDRH  EQU      $5406         ; ADC Schmitt trigger disable 
                                                                ;register high  
 195  005407                       ADC_TDRL  EQU      $5407         ; ADC Schmitt trigger disable 
                                                                ;register low   
 196  005408                       ADC_HTRH  EQU      $5408         ; ADC high threshold register 
                                                                ;high           
 197  005409                       ADC_HTRL  EQU      $5409         ; ADC high threshold register 
                                                                ;low            
 198  00540A                       ADC_LTRH  EQU      $540A         ; ADC low threshold register 
                                                                ;high            
STMicroelectronics list file postprocessor v1.01   (C)2009-2014   Sun Jul 06 23:27:10 2014
Page 7  Assembler
                                               e:\stm_project\stm8s105c6t6\assembler\project_2\general.asm

 199  00540B                       ADC_LTRL  EQU      $540B         ; ADC low threshold register low
                                                                ;             
 200  00540C                       ADC_AWSRH  EQU      $540C         ; ADC analog watchdog status 
                                                                ;register high   
 201  00540D                       ADC_AWSRL  EQU      $540D         ; ADC analog watchdog status 
                                                                ;register low    
 202  00540E                       ADC_AWCRH  EQU      $540E         ; ADC analog watchdog control 
                                                                ;register high  
 203  00540F                       ADC_AWCRL  EQU      $540F         ; ADC analog watchdog control 
                                                                ;register low   
 204                         ;=============================================================
                               ;=======================
 205  007F60                       CFG_GCR   EQU      $7F60         ; Global configuration register 
                                                                ;          
 206  007F70                       ITC_SPR1  EQU      $7F70         ; Interrupt software priority 
                                                                ;register 1  
 207  007F71                       ITC_SPR2  EQU      $7F71         ; Interrupt software priority 
                                                                ;register 2  
 208  007F72                       ITC_SPR3  EQU      $7F72         ; Interrupt software priority 
                                                                ;register 3  
 209  007F73                       ITC_SPR4  EQU      $7F73         ; Interrupt software priority 
                                                                ;register 4  
 210  007F74                       ITC_SPR5  EQU      $7F74         ; Interrupt software priority 
                                                                ;register 5  
 211  007F75                       ITC_SPR6  EQU      $7F75         ; Interrupt software priority 
                                                                ;register 6  
 212  007F76                       ITC_SPR7  EQU      $7F76         ; Interrupt software priority 
                                                                ;register 7  
 213  007F77                       ITC_SPR8  EQU      $7F77         ; Interrupt software priority 
                                                                ;register 8  
 214  007F80                       SWIM_CSR  EQU      $7F80         ; SWIM control status register  
                                                                ;          
 215                         ;=============================================================
                               ;=======================
 216  007F0A                       CCR       EQU      $7F0A   
 217  007F05                       X_L       EQU      $7F05
 218  007F04                       X_H       EQU      $7F04
 219  007F07                       Y_L       EQU      $7F07
 220  007F06                       Y_H       EQU      $7F06
 221  007F00                       ACC       EQU      $7F00
 222                         ;=============================================================
                               ;=======================
 223                                   SEGMENT  'ROM'
 224                         ;=============================================================
                               ;=======================
 225                         NoneInterrupt:  
 226  008080   80                            IRET     
 227                         ;=============================================================
                               ;=======================	
 228                         InitMemory:  
 229                                                          ;Init Stack
 230  008081   AE07FF                        LDW      X,#$07FF        
 231  008084   94                            LDW      SP,X
 232  008085   AE0000                        LDW      X,#$0000
 233                         ClearRam0:  
 234  008088   7F                            CLR      (X)
 235  008089   5C                            INCW     X
STMicroelectronics list file postprocessor v1.01   (C)2009-2014   Sun Jul 06 23:27:10 2014
Page 8  Assembler
                                               e:\stm_project\stm8s105c6t6\assembler\project_2\general.asm

 236  00808A   A300FF                        CPW      X,#$00FF    
 237  00808D   23F9                          JRULE    ClearRam0
 238  00808F   AE0100                        LDW      X,#$0100
 239                         ClearRam1:  
 240  008092   7F                            CLR      (X)
 241  008093   5C                            INCW     X
 242  008094   A301FF                        CPW      X,#$01FF    
 243  008097   23F9                          JRULE    ClearRam1
 244  008099   AE0200                        LDW      X,#$0200
 245                         ClearStack:  
 246  00809C   7F                            CLR      (X)
 247  00809D   5C                            INCW     X
 248  00809E   A303FF                        CPW      X,#$03FF
 249  0080A1   23F9                          JRULE    ClearStack
 250  0080A3   CD9264                        call     SystemStart
 251                         GeneralCycle:  
 252  0080A6   8F                            WFI      
 253  0080A7   CC80A6                        JP       GeneralCycle 
 254                         ;=============================================================
                               ;=======================	
<END_OF_INCLUSION>
   0  0080AA                                 #include "RAMVars.asm"
   1                         ;=======RAMMemory($0000-$07FF)================
   2  000000                       Temp      EQU      $0000
   3  000001                       Temp1     EQU      $0001
   4  000002                       Temp2     EQU      $0002
   5  000003                       Temp3     EQU      $0003
   6  000004                       Temp4     EQU      $0004
   7  000005                       Temp5     EQU      $0005
   8  000006                       Temp6     EQU      $0006
   9  000007                       Temp7     EQU      $0007
  10  000008                       Temp8     EQU      $0008
  11  000009                       Temp9     EQU      $0009
  12  00000A                       Temp10    EQU      $000A
  13  00000B                       Temp11    EQU      $000B
  14  00000C                       Temp12    EQU      $000C
  15  00000D                       Posit     EQU      $000D
  16  00000E                       DelayCycle  EQU      $000E
  17  00000F                       Temp13    EQU      $000F
  18  000010                       Temp14    EQU      $0010
  19  000011                       Temp15    EQU      $0011
  20  000012                       Temp16    EQU      $0012
  21  000013                       Temp17    EQU      $0013
  22  000014                       Temp18    EQU      $0014
  23  000015                       Temp19    EQU      $0015
  24  000016                       Temp20    EQU      $0016
  25  000017                       Temp21    EQU      $0017
  26  000018                       Temp22    EQU      $0018
  27  000019                       Temp23    EQU      $0019
  28  00001A                       Temp24    EQU      $001A
  29                         ;Use for algoritm draw line
  30  00001B                       XStart    EQU      $001B
  31  00001C                       YStart    EQU      $001C
  32  00001D                       XEnd      EQU      $001D
  33  00001E                       YEnd      EQU      $001E
  34  00001F                       dX        EQU      $001F
  35  000020                       dY        EQU      $0020
  36  000021                       IncX      EQU      $0021
STMicroelectronics list file postprocessor v1.01   (C)2009-2014   Sun Jul 06 23:27:10 2014
Page 9  Assembler
                                               e:\stm_project\stm8s105c6t6\assembler\project_2\general.asm

  37  000022                       IncY      EQU      $0022
  38  000023                       pdX       EQU      $0023
  39  000024                       pdY       EQU      $0024
  40  000025                       ES        EQU      $0025
  41  000026                       EL        EQU      $0026
  42  000027                       Err       EQU      $0027
  43  000028                       CounterI  EQU      $0028
  44                         ;Use for Hyberbolic functions
  45  000029                       Alpha     EQU      $0029         
  46  00002A                       Length    EQU      $002A
  47  00002B                       Sign      EQU      $002B
  48  00002C                       Result    EQU      $002C
  49                         ;--------------------------
  50  00002D                       Arg2L     EQU      $002D
  51  00002E                       Arg2H     EQU      $002E
  52                         ;--------------------------
  53                         ;Use by ProjectionXY(X1,Y1,LengthVector,,Alpha,X2,Y2)
  54  00002F                       XS        EQU      $002F
  55  000030                       YS        EQU      $0030
  56  000031                       LengthLine  EQU      $0031
  57  000032                       Angle     EQU      $0032
  58  000033                       XE        EQU      $0033
  59  000034                       YE        EQU      $0034
  60  000035                       Var1      EQU      $0035         
  61  000036                       Var2      EQu      $0036
  62                         ;-------------------------------------
  63  000037                       Temp25    EQU      $0037
  64  000038                       Temp26    EQU      $0038
  65  000039                       Temp27    EQU      $0039
  66                         ;-------------------------------------
  67                         ;Use by DrawSymbol
  68  00003A                       Symbol    EQU      $003A
  69  00003B                       ScaleX    EQU      $003B
  70  00003C                       ScaleY    EQU      $003C
  71  00003D                       WidthS    EQU      $003D
  72  00003E                       HeightS   EQU      $003E
  73  00003F                       Position  EQU      $003F
  74  000040                       Column    EQU      $0040
  75  000041                       CycleI    EQU      $0041
  76  000042                       CycleJ    EQu      $0042
  77                         ;Use by DrawText
  78  000043                       XT        EQU      $0043
  79  000044                       YT        EQU      $0044
  80  000045                       Var3      EQU      $0045
  81  000046                       Var4      EQU      $0046
  82  000047                       RT        EQU      $0047
  83  000048                       GT        EQU      $0048
  84  000049                       BT        EQU      $0049
  85  00004B                       Var5      EQU      $004B
  86  00004D                       Shift     EQU      $004D
  87                         ;--------------------------
  88  00004E                       Temp71    EQU      $004E
  89  00004F                       LvlLed    EQU      $004F
  90  000050                       IsRender  EQU      $0050
  91  000051                       LvlLed2   EQU      $0051
  92                         ;--------------------------
  93                         ;Use for MatrixKeyboard
STMicroelectronics list file postprocessor v1.01   (C)2009-2014   Sun Jul 06 23:27:10 2014
Page 10  Assembler
                                               e:\stm_project\stm8s105c6t6\assembler\project_2\general.asm

  94                         ;****************************
  95  000052                       KeyboardFlag  EQU      $0052
  96                         ;****************************
  97  000053                       Line1     EQU      $0053
  98  000054                       Line2     EQU      $0054
  99  000055                       Line3     EQU      $0055
 100  000056                       Line4     EQU      $0056
 101  000057                       OldLine1  EQU      $0057
 102  000058                       OldLine2  EQU      $0058
 103  000059                       OldLine3  EQU      $0059
 104  00005A                       OldLine4  EQU      $005A
 105  00005B                       BufLine1  EQU      $005B
 106  00005C                       BufLine2  EQU      $005C
 107  00005D                       BufLine3  EQU      $005D
 108  00005E                       BufLine4  EQU      $005E
 109                         UpdateRTCFlag  
 110                         ;=============================================================
                               ;=======================
 111                         
 112                         
<END_OF_INCLUSION>
   0  0080AA                                 #include "MatrixKeyboard.asm"
   1                         ;=============================================================
                               ;=======================
   2                                   SEGMENT  'ROM'
   3                         ;=============================================================
                               ;=======================
   4                         UpdateKeyboard:  
   5  0080AA   7200005232                    BTJT     KeyboardFlag,#0,ClearStatusKeyboard
   6                                                          ;Если флаг переполнения 
                                                                ;сброшен,
   7                                                          ;то продолжаем работу.
   8                                                          ;В противном случае-выход.
   9  0080AF   455B57                        MOV      OldLine1,BufLine1
  10  0080B2   455C58                        MOV      OldLine2,BufLine2
  11  0080B5   455D59                        MOV      OldLine3,BufLine3
  12  0080B8   455E5A                        MOV      OldLine4,BufLine4
  13  0080BB   CD80FF                        call     ReadKeyboard
  14  0080BE   CD80C9                        call     CheckLine
  15  0080C1   72100052                      BSET     KeyboardFlag,#0
  16  0080C5   CD8130                        call     HandlerButton
  17  0080C8   81                            RET      
  18                         CheckLine:  
  19                                                          ;+++Проверка 1 линии+++
  20  0080C9   B657                          LD       A,OldLine1             ;Сравнимаем состояние 
                                                                ;клавиатуры
  21  0080CB   B15B                          CP       A,BufLine1    ;до и после считывания.
  22  0080CD   2623                          JRNE     WriteStatusKeyboard  ;Если значение не равно,
  23                                                          ;то записываем в Line1 состояние
                                                                ; 1 линии.
  24                                                          ;Если равно, то проверяем 
                                                                ;дальше.
  25                                                          ;+++Проверка 2 линии+++
  26  0080CF   B658                          LD       A,OldLine2
  27  0080D1   B15C                          CP       A,BufLine2
  28  0080D3   261D                          JRNE     WriteStatusKeyboard
  29                                                          ;+++Проверка 3 линии+++
  30  0080D5   B659                          LD       A,OldLine3
STMicroelectronics list file postprocessor v1.01   (C)2009-2014   Sun Jul 06 23:27:10 2014
Page 11  Assembler
                                               e:\stm_project\stm8s105c6t6\assembler\project_2\general.asm

  31  0080D7   B15D                          CP       A,BufLine3
  32  0080D9   2617                          JRNE     WriteStatusKeyboard
  33                                                          ;+++Проверка 4 линии+++
  34  0080DB   B65A                          LD       A,OldLine4
  35  0080DD   B15E                          CP       A,BufLine4
  36  0080DF   2611                          JRNE     WriteStatusKeyboard
  37                                                          ;Обнуляем состояние клавиатуры,
  38                                                          ;если состояние клавиатуры не 
                                                                ;изменилось.
  39                         ClearStatusKeyboard:  
  40  0080E1   35080053                      MOV      Line1,#$08
  41  0080E5   35040054                      MOV      Line2,#$04
  42  0080E9   35020055                      MOV      Line3,#$02
  43  0080ED   35010056                      MOV      Line4,#$01
  44  0080F1   81                            RET      
  45                         WriteStatusKeyboard:  
  46                                                          ;Записываем текущее состояние 
                                                                ;клавиатуры,
  47                                                          ;если состояние клавиатуры 
                                                                ;изменилось.
  48  0080F2   455B53                        MOV      Line1,BufLine1
  49  0080F5   455C54                        MOV      Line2,BufLine2
  50  0080F8   455D55                        MOV      Line3,BufLine3
  51  0080FB   455E56                        MOV      Line4,BufLine4
  52  0080FE   81                            RET      
  53                         ;=============================================================
                               ;=======================
  54                         ReadKeyboard:  
  55                                                          ;Считывания состояния 
                                                                ;клавиатуры
  56  0080FF   35075005                      MOV      PORTB,#%00000111
  57  008103   555006005B                    MOV      BufLine1,PINB
  58  008108   335B                          CPL      BufLine1
  59  00810A   9D                            NOP      
  60                                                          ;++++++++++++++++++++++++++
  61  00810B   350B5005                      MOV      PORTB,#%00001011
  62  00810F   555006005C                    MOV      BufLine2,PINB
  63  008114   335C                          CPL      BufLine2
  64  008116   9D                            NOP      
  65                                                          ;++++++++++++++++++++++++++
  66  008117   350D5005                      MOV      PORTB,#%00001101
  67  00811B   555006005D                    MOV      BufLine3,PINB
  68  008120   335D                          CPL      BufLine3
  69  008122   9D                            NOP      
  70                                                          ;++++++++++++++++++++++++++
  71  008123   350E5005                      MOV      PORTB,#%00001110
  72  008127   555006005E                    MOV      BufLine4,PINB
  73  00812C   335E                          CPL      BufLine4
  74  00812E   9D                            NOP      
  75                                                          ;++++++++++++++++++++++++++
  76  00812F   81                            RET      
  77                         ;=============================================================
                               ;=======================
  78                         HandlerButton:  
  79  008130   720F005303                    BTJF     Line1,#7,Next1
  80                                                          ;HandlerButton1---
  81  008135   CD93F8                        call     OnDownButton1
STMicroelectronics list file postprocessor v1.01   (C)2009-2014   Sun Jul 06 23:27:10 2014
Page 12  Assembler
                                               e:\stm_project\stm8s105c6t6\assembler\project_2\general.asm

  82                                                          ;-----------------
  83                         Next1:    
  84  008138   720D005303                    BTJF     Line1,#6,Next2
  85                                                          ;HandlerButton2---
  86  00813D   CD943F                        call     OnDownButton2
  87                                                          ;-----------------
  88                         Next2:    
  89  008140   720B005303                    BTJF     Line1,#5,Next3
  90                                                          ;HandlerButton3---
  91  008145   CD9463                        call     OnDownButton3
  92                                                          ;-----------------
  93                         Next3:    
  94  008148   720F005400                    BTJF     Line2,#7,Next4
  95                                                          ;HandlerButton4---
  96                                                          ;call OnDownButton4
  97                                                          ;-----------------
  98                         Next4:    
  99  00814D   720D005400                    BTJF     Line2,#6,Next5
 100                                                          ;HandlerButton5---
 101                                                          ;call OnDownButton5
 102                                                          ;-----------------
 103                         Next5:    
 104  008152   720B005400                    BTJF     Line2,#5,Next6
 105                                                          ;HandlerButton6---
 106                                                          ;call OnDownButton6
 107                                                          ;-----------------
 108                         Next6:    
 109  008157   720F005500                    BTJF     Line3,#7,Next7
 110                                                          ;HandlerButton7---
 111                                                          ;call OnDownButton7
 112                                                          ;-----------------
 113                         Next7:    
 114  00815C   720D005500                    BTJF     Line3,#6,Next8
 115                                                          ;HandlerButton8---
 116                                                          ;call OnDownButton8
 117                                                          ;-----------------
 118                         Next8:    
 119  008161   720B005500                    BTJF     Line3,#5,Next9
 120                                                          ;HandlerButton9---
 121                                                          ;call OnDownButton9
 122                                                          ;-----------------
 123                         Next9:    
 124  008166   720F005600                    BTJF     Line4,#7,Next10
 125                                                          ;HandlerButton10--
 126                                                          ;call OnDownButton10
 127                                                          ;-----------------
 128                         Next10:   
 129  00816B   720D005600                    BTJF     Line4,#6,Next11
 130                                                          ;HandlerButton11--
 131                                                          ;call OnDownButton11
 132                                                          ;-----------------
 133                         Next11:   
 134  008170   720B005600                    BTJF     Line4,#5,OutHandler
 135                                                          ;HandlerButton12--
 136                                                          ;call OnDownButton12
 137                                                          ;-----------------	
 138                         OutHandler:  
STMicroelectronics list file postprocessor v1.01   (C)2009-2014   Sun Jul 06 23:27:10 2014
Page 13  Assembler
                                               e:\stm_project\stm8s105c6t6\assembler\project_2\general.asm

 139  008175   81                            RET      
 140                         ;=============================================================
                               ;=======================
 141                         UpdateKeyboardFlag:  
 142  008176   72110052                      BRES     KeyboardFlag,#0
 143  00817A   81                            RET      
 144                         ;=============================================================
                               ;=======================
<END_OF_INCLUSION>
   0  00817B                                 #include "LCDNokia.asm"  
   1                         ;=============================================================
                               ;=======================
   0  00817B                                 #include "Font6x8.asm"
   1                         Font6x8:  
   2                                                          ;Size font
   3  00817B   0608                          DC.B     $06,$08
   4                                                          ;$00 - пустое знакоместо
   5  00817D   000000000000                  DC.B     $00,$00,$00,$00,$00,$00 
   6                                                          ;$01 - лицо с улыбкой
   7  008183   003E4551453E                  DC.B     $00,$3E,$45,$51,$45,$3E 
   8                                                          ;$02 - лицо с улыбкой 
                                                                ;закрашенное
   9  008189   003E6B6F6B3E                  DC.B     $00,$3E,$6B,$6F,$6B,$3E 
  10                                                          ;$03 - червы (сердце)
  11  00818F   001C3E7C3E1C                  DC.B     $00,$1C,$3E,$7C,$3E,$1C 
  12                                                          ;$04 - бубны
  13  008195   00183C7E3C18                  DC.B     $00,$18,$3C,$7E,$3C,$18 
  14                                                          ;$05 - крести
  15  00819B   0030367F3630                  DC.B     $00,$30,$36,$7F,$36,$30 
  16                                                          ;$06 - вини
  17  0081A1   00185C7E5C18                  DC.B     $00,$18,$5C,$7E,$5C,$18 
  18                                                          ;$07 - закрашенный круг по 
                                                                ;центру
  19  0081A7   000018180000                  DC.B     $00,$00,$18,$18,$00,$00 
  20                                                          ;$08 - закрашенный круг по 
                                                                ;центру в инверсии
  21  0081AD   FFFFE7E7FFFF                  DC.B     $FF,$FF,$E7,$E7,$FF,$FF 
  22                                                          ;$09 - незакрашенный круг по 
                                                                ;центру
  23  0081B3   003C24243C00                  DC.B     $00,$3C,$24,$24,$3C,$00 
  24                                                          ;$0A - незакрашенный круг по 
                                                                ;центру в инверсии (кольцо)
  25  0081B9   FFC3DBDBC3FF                  DC.B     $FF,$C3,$DB,$DB,$C3,$FF 
  26                                                          ;$0B - мужской символ (круг со 
                                                                ;стрелкой вверх)
  27  0081BF   0030484A360E                  DC.B     $00,$30,$48,$4A,$36,$0E 
  28                                                          ;$0C - женский символ (круг с 
                                                                ;крестом внизу)
  29  0081C5   000629792906                  DC.B     $00,$06,$29,$79,$29,$06 
  30                                                          ;$0D - нота I
  31  0081CB   0060703F0204                  DC.B     $00,$60,$70,$3F,$02,$04 
  32                                                          ;$0E - нота II
  33  0081D1   00607E0A353F                  DC.B     $00,$60,$7E,$0A,$35,$3F 
  34                                                          ;$0F - солнце (круг с 
                                                                ;расходящимися лучами)
  35  0081D7   002A1C361C2A                  DC.B     $00,$2A,$1C,$36,$1C,$2A 
  36                                                          ;$10 - толстая стрелка вправо
  37  0081DD   00007F3E1C08                  DC.B     $00,$00,$7F,$3E,$1C,$08 
STMicroelectronics list file postprocessor v1.01   (C)2009-2014   Sun Jul 06 23:27:10 2014
Page 14  Assembler
                                               e:\stm_project\stm8s105c6t6\assembler\project_2\general.asm

  38                                                          ;$11 - толстая стрелка влево
  39  0081E3   00081C3E7F00                  DC.B     $00,$08,$1C,$3E,$7F,$00 
  40                                                          ;$12 - тонкая стрелка 
                                                                ;вверх-вниз
  41  0081E9   0014367F3614                  DC.B     $00,$14,$36,$7F,$36,$14 
  42                                                          ;$13 - два восклицательных 
                                                                ;знака
  43  0081EF   00005F005F00                  DC.B     $00,$00,$5F,$00,$5F,$00 
  44                                                          ;$14 - символ "Пи"
  45  0081F5   0006097F017F                  DC.B     $00,$06,$09,$7F,$01,$7F 
  46                                                          ;$15 - символ параграфа
  47  0081FB   00224D555922                  DC.B     $00,$22,$4D,$55,$59,$22 
  48                                                          ;$16 - широкое подчеркивание
  49  008201   006060606000                  DC.B     $00,$60,$60,$60,$60,$00 
  50                                                          ;$17 - тонкая стрелка вверх-вниз
                                                                ; с подчеркиванием
  51  008207   0014B6FFB614                  DC.B     $00,$14,$B6,$FF,$B6,$14 
  52                                                          ;$18 - тонкая стрелка вверх
  53  00820D   0004067F0604                  DC.B     $00,$04,$06,$7F,$06,$04 
  54                                                          ;$19 - тонкая стрелка вниз
  55  008213   0010307F3010                  DC.B     $00,$10,$30,$7F,$30,$10 
  56                                                          ;$1A - тонкая стрелка вправо
  57  008219   0008083E1C08                  DC.B     $00,$08,$08,$3E,$1C,$08 
  58                                                          ;$1B - тонкая стрелка влево
  59  00821F   00081C3E0808                  DC.B     $00,$08,$1C,$3E,$08,$08 
  60                                                          ;$1C - символ отступа
  61  008225   007840404040                  DC.B     $00,$78,$40,$40,$40,$40 
  62                                                          ;$1D - тонкая стрелка 
                                                                ;влево-вправо
  63  00822B   00083E083E08                  DC.B     $00,$08,$3E,$08,$3E,$08 
  64                                                          ;$1E - толстая стрелка вверх
  65  008231   00303C3F3C30                  DC.B     $00,$30,$3C,$3F,$3C,$30 
  66                                                          ;$1F - толстая стрелка вниз
  67  008237   00030F3F0F03                  DC.B     $00,$03,$0F,$3F,$0F,$03 
  68                                                          ;$20 - пробел (пустое 
                                                                ;знакоместо)
  69  00823D   000000000000                  DC.B     $00,$00,$00,$00,$00,$00 
  70                                                          ;$21 - восклицательный знак
  71  008243   0000065F0600                  DC.B     $00,$00,$06,$5F,$06,$00 
  72                                                          ;$22 - двойная кавычка
  73  008249   000703000703                  DC.B     $00,$07,$03,$00,$07,$03 
  74                                                          ;$23 - решетка
  75  00824F   00247E247E24                  DC.B     $00,$24,$7E,$24,$7E,$24 
  76                                                          ;$24 - доллар
  77  008255   00242B6A1200                  DC.B     $00,$24,$2B,$6A,$12,$00 
  78                                                          ;$25 - процент
  79  00825B   006313086463                  DC.B     $00,$63,$13,$08,$64,$63 
  80                                                          ;$26 - амперсанд
  81  008261   003649562050                  DC.B     $00,$36,$49,$56,$20,$50 
  82                                                          ;$27 - апостроф
  83  008267   000007030000                  DC.B     $00,$00,$07,$03,$00,$00 
  84                                                          ;$28 - открывающая скобка
  85  00826D   00003E410000                  DC.B     $00,$00,$3E,$41,$00,$00 
  86                                                          ;$29 - закрывающая скобка
  87  008273   0000413E0000                  DC.B     $00,$00,$41,$3E,$00,$00 
  88                                                          ;$2A - звездочка (умножение)
  89  008279   00083E1C3E08                  DC.B     $00,$08,$3E,$1C,$3E,$08 
STMicroelectronics list file postprocessor v1.01   (C)2009-2014   Sun Jul 06 23:27:10 2014
Page 15  Assembler
                                               e:\stm_project\stm8s105c6t6\assembler\project_2\general.asm

  90                                                          ;$2B - плюс
  91  00827F   0008083E0808                  DC.B     $00,$08,$08,$3E,$08,$08 
  92                                                          ;$2C - запятая
  93  008285   0000E0600000                  DC.B     $00,$00,$E0,$60,$00,$00 
  94                                                          ;$2D - тире
  95  00828B   000808080808                  DC.B     $00,$08,$08,$08,$08,$08 
  96                                                          ;$2E - точка
  97  008291   000060600000                  DC.B     $00,$00,$60,$60,$00,$00 
  98                                                          ;$2F - слеш слева-направо ('/')
  99  008297   002010080402                  DC.B     $00,$20,$10,$08,$04,$02 
 100                                                          ;$30 - '0'
 101  00829D   003E4141413E                  DC.B     $00,$3E,$41,$41,$41,$3E 
 102                                                          ;$31 - '1'
 103  0082A3   0000427F4000                  DC.B     $00,$00,$42,$7F,$40,$00 
 104                                                          ;$32 - '2'
 105  0082A9   006251494946                  DC.B     $00,$62,$51,$49,$49,$46 
 106                                                          ;$33 - '3'
 107  0082AF   002249494936                  DC.B     $00,$22,$49,$49,$49,$36 
 108                                                          ;$34 - '4'
 109  0082B5   001814127F10                  DC.B     $00,$18,$14,$12,$7F,$10 
 110                                                          ;$35 - '5'
 111  0082BB   002F49494931                  DC.B     $00,$2F,$49,$49,$49,$31 
 112                                                          ;$36 - '6'
 113  0082C1   003C4A494930                  DC.B     $00,$3C,$4A,$49,$49,$30 
 114                                                          ;$37 - '7'
 115  0082C7   000171090503                  DC.B     $00,$01,$71,$09,$05,$03 
 116                                                          ;$38 - '8'
 117  0082CD   003649494936                  DC.B     $00,$36,$49,$49,$49,$36 
 118                                                          ;$39 - '9'
 119  0082D3   00064949291E                  DC.B     $00,$06,$49,$49,$29,$1E 
 120                                                          ;$3A - двоеточие
 121  0082D9   00006C6C0000                  DC.B     $00,$00,$6C,$6C,$00,$00 
 122                                                          ;$3B - точка с запятой
 123  0082DF   0000EC6C0000                  DC.B     $00,$00,$EC,$6C,$00,$00 
 124                                                          ;$3C - меньше
 125  0082E5   000814224100                  DC.B     $00,$08,$14,$22,$41,$00 
 126                                                          ;$3D - равно
 127  0082EB   002424242424                  DC.B     $00,$24,$24,$24,$24,$24 
 128                                                          ;$3E - больше
 129  0082F1   000041221408                  DC.B     $00,$00,$41,$22,$14,$08 
 130                                                          ;$3F - вопросительный знак
 131  0082F7   000201590906                  DC.B     $00,$02,$01,$59,$09,$06 
 132                                                          ;$40 - "собака" ('@')
 133  0082FD   003E415D551E                  DC.B     $00,$3E,$41,$5D,$55,$1E 
 134                                                          ;$41 - 'A'
 135  008303   007E1111117E                  DC.B     $00,$7E,$11,$11,$11,$7E 
 136                                                          ;$42 - 'B'
 137  008309   007F49494936                  DC.B     $00,$7F,$49,$49,$49,$36 
 138                                                          ;$43 - 'C'
 139  00830F   003E41414122                  DC.B     $00,$3E,$41,$41,$41,$22 
 140                                                          ;$44 - 'D'
 141  008315   007F4141413E                  DC.B     $00,$7F,$41,$41,$41,$3E 
 142                                                          ;$45 - 'E'
 143  00831B   007F49494941                  DC.B     $00,$7F,$49,$49,$49,$41 
 144                                                          ;$46 - 'F'
 145  008321   007F09090901                  DC.B     $00,$7F,$09,$09,$09,$01 
 146                                                          ;$47 - 'G'
STMicroelectronics list file postprocessor v1.01   (C)2009-2014   Sun Jul 06 23:27:10 2014
Page 16  Assembler
                                               e:\stm_project\stm8s105c6t6\assembler\project_2\general.asm

 147  008327   003E4149497A                  DC.B     $00,$3E,$41,$49,$49,$7A 
 148                                                          ;$48 - 'H'
 149  00832D   007F0808087F                  DC.B     $00,$7F,$08,$08,$08,$7F 
 150                                                          ;$49 - 'I'
 151  008333   0000417F4100                  DC.B     $00,$00,$41,$7F,$41,$00 
 152                                                          ;$4A - 'J'
 153  008339   00304040403F                  DC.B     $00,$30,$40,$40,$40,$3F 
 154                                                          ;$4B - 'K'
 155  00833F   007F08142241                  DC.B     $00,$7F,$08,$14,$22,$41 
 156                                                          ;$4C - 'L'
 157  008345   007F40404040                  DC.B     $00,$7F,$40,$40,$40,$40 
 158                                                          ;$4D - 'M'
 159  00834B   007F0204027F                  DC.B     $00,$7F,$02,$04,$02,$7F 
 160                                                          ;$4E - 'N'
 161  008351   007F0204087F                  DC.B     $00,$7F,$02,$04,$08,$7F 
 162                                                          ;$4F - 'O'
 163  008357   003E4141413E                  DC.B     $00,$3E,$41,$41,$41,$3E 
 164                                                          ;$50 - 'P'
 165  00835D   007F09090906                  DC.B     $00,$7F,$09,$09,$09,$06 
 166                                                          ;$51 - 'Q'
 167  008363   003E4151215E                  DC.B     $00,$3E,$41,$51,$21,$5E 
 168                                                          ;$52 - 'R'
 169  008369   007F09091966                  DC.B     $00,$7F,$09,$09,$19,$66 
 170                                                          ;$53 - 'S'
 171  00836F   002649494932                  DC.B     $00,$26,$49,$49,$49,$32 
 172                                                          ;$54 - 'T'
 173  008375   0001017F0101                  DC.B     $00,$01,$01,$7F,$01,$01 
 174                                                          ;$55 - 'U'
 175  00837B   003F4040403F                  DC.B     $00,$3F,$40,$40,$40,$3F 
 176                                                          ;$56 - 'V'
 177  008381   001F2040201F                  DC.B     $00,$1F,$20,$40,$20,$1F 
 178                                                          ;$57 - 'W'
 179  008387   003F403C403F                  DC.B     $00,$3F,$40,$3C,$40,$3F 
 180                                                          ;$58 - 'X'
 181  00838D   006314081463                  DC.B     $00,$63,$14,$08,$14,$63 
 182                                                          ;$59 - 'Y'
 183  008393   000708700807                  DC.B     $00,$07,$08,$70,$08,$07 
 184                                                          ;$5A - 'Z'
 185  008399   007149454300                  DC.B     $00,$71,$49,$45,$43,$00 
 186                                                          ;$5B - '['
 187  00839F   00007F414100                  DC.B     $00,$00,$7F,$41,$41,$00 
 188                                                          ;$5C - '\'
 189  0083A5   000204081020                  DC.B     $00,$02,$04,$08,$10,$20 
 190                                                          ;$5D - ']'
 191  0083AB   000041417F00                  DC.B     $00,$00,$41,$41,$7F,$00 
 192                                                          ;$5E - '^'
 193  0083B1   000402010204                  DC.B     $00,$04,$02,$01,$02,$04 
 194                                                          ;$5F - '_'
 195  0083B7   808080808080                  DC.B     $80,$80,$80,$80,$80,$80 
 196                                                          ;$60 - обратный апостроф
 197  0083BD   000003070000                  DC.B     $00,$00,$03,$07,$00,$00 
 198                                                          ;$61 - 'A'
 199  0083C3   002054545478                  DC.B     $00,$20,$54,$54,$54,$78 
 200                                                          ;$62 - 'B'
 201  0083C9   007F44444438                  DC.B     $00,$7F,$44,$44,$44,$38 
 202                                                          ;$63 - 'C'
 203  0083CF   003844444428                  DC.B     $00,$38,$44,$44,$44,$28 
STMicroelectronics list file postprocessor v1.01   (C)2009-2014   Sun Jul 06 23:27:10 2014
Page 17  Assembler
                                               e:\stm_project\stm8s105c6t6\assembler\project_2\general.asm

 204                                                          ;$64 - 'D'
 205  0083D5   00384444447F                  DC.B     $00,$38,$44,$44,$44,$7F 
 206                                                          ;$65 - 'E'
 207  0083DB   003854545408                  DC.B     $00,$38,$54,$54,$54,$08 
 208                                                          ;$66 - 'F'
 209  0083E1   00087E090900                  DC.B     $00,$08,$7E,$09,$09,$00 
 210                                                          ;$67 - 'g'
 211  0083E7   0018A4A4A47C                  DC.B     $00,$18,$A4,$A4,$A4,$7C 
 212                                                          ;$68 - 'h'
 213  0083ED   007F04047800                  DC.B     $00,$7F,$04,$04,$78,$00 
 214                                                          ;$69 - 'i'
 215  0083F3   0000007D4000                  DC.B     $00,$00,$00,$7D,$40,$00 
 216                                                          ;$6A - 'j'
 217  0083F9   004080847D00                  DC.B     $00,$40,$80,$84,$7D,$00 
 218                                                          ;$6B - 'k'
 219  0083FF   007F10284400                  DC.B     $00,$7F,$10,$28,$44,$00 
 220                                                          ;$6C - 'l'
 221  008405   0000007F4000                  DC.B     $00,$00,$00,$7F,$40,$00 
 222                                                          ;$6D - 'm'
 223  00840B   007C04180478                  DC.B     $00,$7C,$04,$18,$04,$78 
 224                                                          ;$6E - 'n'
 225  008411   007C04047800                  DC.B     $00,$7C,$04,$04,$78,$00 
 226                                                          ;$6F - 'o'
 227  008417   003844444438                  DC.B     $00,$38,$44,$44,$44,$38 
 228                                                          ;$70 - 'p'
 229  00841D   00FC44444438                  DC.B     $00,$FC,$44,$44,$44,$38 
 230                                                          ;$71 - 'q'
 231  008423   0038444444FC                  DC.B     $00,$38,$44,$44,$44,$FC 
 232                                                          ;$72 - 'r'
 233  008429   004478440408                  DC.B     $00,$44,$78,$44,$04,$08 
 234                                                          ;$73 - 's'
 235  00842F   000854545420                  DC.B     $00,$08,$54,$54,$54,$20 
 236                                                          ;$74 - 't'
 237  008435   00043E442400                  DC.B     $00,$04,$3E,$44,$24,$00 
 238                                                          ;$75 - 'u'
 239  00843B   003C40207C00                  DC.B     $00,$3C,$40,$20,$7C,$00 
 240                                                          ;$76 - 'v'
 241  008441   001C2040201C                  DC.B     $00,$1C,$20,$40,$20,$1C 
 242                                                          ;$77 - 'w'
 243  008447   003C6030603C                  DC.B     $00,$3C,$60,$30,$60,$3C 
 244                                                          ;$78 - 'x'
 245  00844D   006C10106C00                  DC.B     $00,$6C,$10,$10,$6C,$00 
 246                                                          ;$79 - 'y'
 247  008453   009CA0603C00                  DC.B     $00,$9C,$A0,$60,$3C,$00 
 248                                                          ;$7A - 'z'
 249  008459   006454544C00                  DC.B     $00,$64,$54,$54,$4C,$00 
 250                                                          ;$7B - '{'
 251  00845F   00083E414100                  DC.B     $00,$08,$3E,$41,$41,$00 
 252                                                          ;$7C - '|'
 253  008465   000000770000                  DC.B     $00,$00,$00,$77,$00,$00 
 254                                                          ;$7D - '}'
 255  00846B   000041413E08                  DC.B     $00,$00,$41,$41,$3E,$08 
 256                                                          ;$7E - '~'
 257  008471   000201020100                  DC.B     $00,$02,$01,$02,$01,$00 
 258                                                          ;$7F - "домик"
 259  008477   003C2623263C                  DC.B     $00,$3C,$26,$23,$26,$3C 
 260                                                          ;$80 - сетка из точек 
STMicroelectronics list file postprocessor v1.01   (C)2009-2014   Sun Jul 06 23:27:10 2014
Page 18  Assembler
                                               e:\stm_project\stm8s105c6t6\assembler\project_2\general.asm

                                                                ;разреженная
 261  00847D   441144114411                  DC.B     $44,$11,$44,$11,$44,$11 
 262                                                          ;$81 - сетка из точек густая
 263  008483   AA55AA55AA55                  DC.B     $AA,$55,$AA,$55,$AA,$55 
 264                                                          ;$82 - сетка из черточек
 265  008489   BBEEBBEEBBEE                  DC.B     $BB,$EE,$BB,$EE,$BB,$EE 
 266                                                          ;$83 - символы рамок 
                                                                ;псевдографики - вертикальная 
                                                                ;черта
 267  00848F   000000FF0000                  DC.B     $00,$00,$00,$FF,$00,$00 
 268                                                          ;$84 - псевдографика - 
                                                                ;вертикальная черта с отводом по
                                                                ; центру влево
 269  008495   080808FF0000                  DC.B     $08,$08,$08,$FF,$00,$00 
 270                                                          ;$85 - псевдографика - 
                                                                ;вертикальная черта с двойным 
                                                                ;отводом по центру влево
 271  00849B   0A0A0AFF0000                  DC.B     $0A,$0A,$0A,$FF,$00,$00 
 272                                                          ;$86 - псевдографика - двойная 
                                                                ;вертикальная черта с отводом по
                                                                ; центру влево
 273  0084A1   08FF00FF0000                  DC.B     $08,$FF,$00,$FF,$00,$00 
 274                                                          ;$87 - псевдографика - верхний 
                                                                ;правый угол с двойной 
                                                                ;вертикальной чертой
 275  0084A7   08F808F80000                  DC.B     $08,$F8,$08,$F8,$00,$00 
 276                                                          ;$88 - псевдографика - верхний 
                                                                ;правый угол с двойной 
                                                                ;горизонтальной чертой
 277  0084AD   0A0A0AFE0000                  DC.B     $0A,$0A,$0A,$FE,$00,$00 
 278                                                          ;$89 - псевдографика - двойная 
                                                                ;вертикальная черта с двойным 
                                                                ;отводом по центру влево
 279  0084B3   0AFB00FF0000                  DC.B     $0A,$FB,$00,$FF,$00,$00 
 280                                                          ;$8A - псевдографика - двойная 
                                                                ;вертикальная черта
 281  0084B9   00FF00FF0000                  DC.B     $00,$FF,$00,$FF,$00,$00 
 282                                                          ;$8B - псевдографика - двойной 
                                                                ;верхний правый угол
 283  0084BF   0AFA02FE0000                  DC.B     $0A,$FA,$02,$FE,$00,$00 
 284                                                          ;$8C - псевдографика - двойной 
                                                                ;нижний правый угол
 285  0084C5   0A0B080F0000                  DC.B     $0A,$0B,$08,$0F,$00,$00 
 286                                                          ;$8D - псевдографика - нижний 
                                                                ;правый угол с двойной 
                                                                ;вертикальной чертой
 287  0084CB   080F080F0000                  DC.B     $08,$0F,$08,$0F,$00,$00 
 288                                                          ;$8E - псевдографика - нижний 
                                                                ;правый угол с двойной 
                                                                ;горизонтальной чертой
 289  0084D1   0A0A0A0F0000                  DC.B     $0A,$0A,$0A,$0F,$00,$00 
 290                                                          ;$8F - псевдографика - верхний 
                                                                ;правый угол
 291  0084D7   080808F80000                  DC.B     $08,$08,$08,$F8,$00,$00 
 292                                                          ;$90 - псевдографика - нижний 
                                                                ;левый угол
 293  0084DD   0000000F0808                  DC.B     $00,$00,$00,$0F,$08,$08 
STMicroelectronics list file postprocessor v1.01   (C)2009-2014   Sun Jul 06 23:27:10 2014
Page 19  Assembler
                                               e:\stm_project\stm8s105c6t6\assembler\project_2\general.asm

 294                                                          ;$91 - псевдографика - 
                                                                ;горизонтальная черта с отводом 
                                                                ;по центру вверх
 295  0084E3   0808080F0808                  DC.B     $08,$08,$08,$0F,$08,$08 
 296                                                          ;$92 - псевдографика - 
                                                                ;горизонтальная черта с отводом 
                                                                ;по центру вниз
 297  0084E9   080808F80808                  DC.B     $08,$08,$08,$F8,$08,$08 
 298                                                          ;$93 - псевдографика - 
                                                                ;вертикальная черта с отводом по
                                                                ; центру вправо
 299  0084EF   000000FF0808                  DC.B     $00,$00,$00,$FF,$08,$08 
 300                                                          ;$94 - псевдографика - 
                                                                ;горизонтальная черта по центру
 301  0084F5   080808080808                  DC.B     $08,$08,$08,$08,$08,$08 
 302                                                          ;$95 - псевдографика - 
                                                                ;перекрестие
 303  0084FB   080808FF0808                  DC.B     $08,$08,$08,$FF,$08,$08 
 304                                                          ;$96 - псевдографика - 
                                                                ;вертикальная черта с двойным 
                                                                ;отводом по центру вправо
 305  008501   000000FF0A0A                  DC.B     $00,$00,$00,$FF,$0A,$0A 
 306                                                          ;$97 - псевдографика - двойная 
                                                                ;вертикальная черта с отводом по
                                                                ; центру вправо
 307  008507   00FF00FF0808                  DC.B     $00,$FF,$00,$FF,$08,$08 
 308                                                          ;$98 - псевдографика - двойной 
                                                                ;нижний левый угол
 309  00850D   000F080B0A0A                  DC.B     $00,$0F,$08,$0B,$0A,$0A 
 310                                                          ;$99 - псевдографика - двойной 
                                                                ;верхний левый угол
 311  008513   00FE02FA0A0A                  DC.B     $00,$FE,$02,$FA,$0A,$0A 
 312                                                          ;$9A - псевдографика - двойная 
                                                                ;горизонтальная черта с двойным 
                                                                ;отводом по центру вверх
 313  008519   0A0B080B0A0A                  DC.B     $0A,$0B,$08,$0B,$0A,$0A 
 314                                                          ;$9B - псевдографика - двойная 
                                                                ;горизонтальная черта с двойным 
                                                                ;отводом по центру вниз
 315  00851F   0AFA02FA0A0A                  DC.B     $0A,$FA,$02,$FA,$0A,$0A 
 316                                                          ;$9C - псевдографика - двойная 
                                                                ;вертикальная черта с двойным 
                                                                ;отводом по центру вправо
 317  008525   00FF00FB0A0A                  DC.B     $00,$FF,$00,$FB,$0A,$0A 
 318                                                          ;$9D - псевдографика - двойная 
                                                                ;горизонтальная черта по центру
 319  00852B   0A0A0A0A0A0A                  DC.B     $0A,$0A,$0A,$0A,$0A,$0A 
 320                                                          ;$9E - псевдографика - двойное 
                                                                ;перекрестие
 321  008531   0AFB00FB0A0A                  DC.B     $0A,$FB,$00,$FB,$0A,$0A 
 322                                                          ;$9F - псевдографика - двойная 
                                                                ;горизонтальная черта с отводом 
                                                                ;по центру вверх
 323  008537   0A0A0A0B0A0A                  DC.B     $0A,$0A,$0A,$0B,$0A,$0A 
 324                                                          ;$A0 - псевдографика - 
                                                                ;горизонтальная черта с двойным 
                                                                ;отводом по центру вверх
STMicroelectronics list file postprocessor v1.01   (C)2009-2014   Sun Jul 06 23:27:10 2014
Page 20  Assembler
                                               e:\stm_project\stm8s105c6t6\assembler\project_2\general.asm

 325  00853D   080F080F0808                  DC.B     $08,$0F,$08,$0F,$08,$08 
 326                                                          ;$A1 - псевдографика - двойная 
                                                                ;горизонтальная черта с отводом 
                                                                ;по центру вниз
 327  008543   0A0A0AFA0A0A                  DC.B     $0A,$0A,$0A,$FA,$0A,$0A 
 328                                                          ;$A2 - псевдографика - 
                                                                ;горизонтальная черта с двойным 
                                                                ;отводом по центру вниз
 329  008549   08F808F80808                  DC.B     $08,$F8,$08,$F8,$08,$08 
 330                                                          ;$A3 - псевдографика - нижний 
                                                                ;левый угол, двойная 
                                                                ;вертикальная черта
 331  00854F   000F080F0808                  DC.B     $00,$0F,$08,$0F,$08,$08 
 332                                                          ;$A4 - псевдографика - нижний 
                                                                ;левый угол, двойная 
                                                                ;горизонтальная черта
 333  008555   0000000F0A0A                  DC.B     $00,$00,$00,$0F,$0A,$0A 
 334                                                          ;$A5 - псевдографика - верхний 
                                                                ;левый угол, двойная 
                                                                ;горизонтальная черта
 335  00855B   000000FE0A0A                  DC.B     $00,$00,$00,$FE,$0A,$0A 
 336                                                          ;$A6 - псевдографика - верхний 
                                                                ;левый угол, двойная 
                                                                ;вертикальная черта
 337  008561   00F808F80808                  DC.B     $00,$F8,$08,$F8,$08,$08 
 338                                                          ;$A7 - псевдографика - двойная 
                                                                ;вертикальная черта по центру с 
                                                                ;отводами вправо и влево
 339  008567   08FF08FF0808                  DC.B     $08,$FF,$08,$FF,$08,$08 
 340                                                          ;$A8 - 'Ё'
 341  00856D   007E4B4A4B42                  DC.B     $00,$7E,$4B,$4A,$4B,$42 
 342                                                          ;$A9 - псевдографика - двойная 
                                                                ;горизонтальная черта по центру 
                                                                ;с отводами вверх и вниз
 343  008573   0A0A0AFF0A0A                  DC.B     $0A,$0A,$0A,$FF,$0A,$0A 
 344                                                          ;$AA - псевдографика - нижний 
                                                                ;правый угол
 345  008579   0808080F0000                  DC.B     $08,$08,$08,$0F,$00,$00 
 346                                                          ;$AB - псевдографика - верхний 
                                                                ;левый угол
 347  00857F   000000F80808                  DC.B     $00,$00,$00,$F8,$08,$08 
 348                                                          ;$AC - псевдографика - 
                                                                ;закрашенное знакоместо
 349  008585   FFFFFFFFFFFF                  DC.B     $FF,$FF,$FF,$FF,$FF,$FF 
 350                                                          ;$AD - псевдографика - 
                                                                ;закрашенная нижняя половина 
                                                                ;знакоместа
 351  00858B   F0F0F0F0F0F0                  DC.B     $F0,$F0,$F0,$F0,$F0,$F0 
 352                                                          ;$AE - псевдографика - 
                                                                ;закрашенная левая половина 
                                                                ;знакоместа
 353  008591   FFFFFF000000                  DC.B     $FF,$FF,$FF,$00,$00,$00 
 354                                                          ;$AF - псевдографика - 
                                                                ;закрашенная правая половина 
                                                                ;знакоместа
 355  008597   000000FFFFFF                  DC.B     $00,$00,$00,$FF,$FF,$FF 
 356                                                          ;$B0 - псевдографика - 
STMicroelectronics list file postprocessor v1.01   (C)2009-2014   Sun Jul 06 23:27:10 2014
Page 21  Assembler
                                               e:\stm_project\stm8s105c6t6\assembler\project_2\general.asm

                                                                ;закрашенная верхняя половина 
                                                                ;знакоместа
 357  00859D   0F0F0F0F0F0F                  DC.B     $0F,$0F,$0F,$0F,$0F,$0F 
 358                                                          ;$B1 - зеркальная 'Э'
 359  0085A3   003E49494122                  DC.B     $00,$3E,$49,$49,$41,$22 
 360                                                          ;$B2 - зеркальная 'э'
 361  0085A9   003854544428                  DC.B     $00,$38,$54,$54,$44,$28 
 362                                                          ;$B3 - 'I' с двумя точками 
                                                                ;вверху
 363  0085AF   0001407E4001                  DC.B     $00,$01,$40,$7E,$40,$01 
 364                                                          ;$B4 - 'i' с двумя точками 
                                                                ;вверху
 365  0085B5   0000017C4100                  DC.B     $00,$00,$01,$7C,$41,$00 
 366                                                          ;$B5 - 'Y' с тильдой вверху 
                                                                ;('~')
 367  0085BB   0027484B483F                  DC.B     $00,$27,$48,$4B,$48,$3F 
 368                                                          ;$B6 - 'y' с тильдой вверху 
                                                                ;('~')
 369  0085C1   009DA2623D00                  DC.B     $00,$9D,$A2,$62,$3D,$00 
 370                                                          ;$B7 - маленький кружок вверху
 371  0085C7   000609090600                  DC.B     $00,$06,$09,$09,$06,$00 
 372                                                          ;$B8 - 'ё'
 373  0085CD   003855545508                  DC.B     $00,$38,$55,$54,$55,$08 
 374                                                          ;$B9 - большой закрашенный круг 
                                                                ;по центру
 375  0085D3   000018180000                  DC.B     $00,$00,$18,$18,$00,$00 
 376                                                          ;$BA - маленький закрашенный 
                                                                ;круг по центру
 377  0085D9   000008000000                  DC.B     $00,$00,$08,$00,$00,$00 
 378                                                          ;$BB - символ корня квадратного
 379  0085DF   0030403E0202                  DC.B     $00,$30,$40,$3E,$02,$02 
 380                                                          ;$BC - '№'
 381  0085E5   7F06187F1313                  DC.B     $7F,$06,$18,$7F,$13,$13 
 382                                                          ;$BD - "солнце"
 383  0085EB   2A3E14143E2A                  DC.B     $2A,$3E,$14,$14,$3E,$2A 
 384                                                          ;$BE - закрашенный квадрат по 
                                                                ;центру
 385  0085F1   003C3C3C3C00                  DC.B     $00,$3C,$3C,$3C,$3C,$00 
 386                                                          ;$BF - пустое знакоместо
 387  0085F7   000000000000                  DC.B     $00,$00,$00,$00,$00,$00 
 388                                                          ;$C0 - 'А'
 389  0085FD   007E1111117E                  DC.B     $00,$7E,$11,$11,$11,$7E 
 390                                                          ;$C1 - 'Б'
 391  008603   007F49494931                  DC.B     $00,$7F,$49,$49,$49,$31 
 392                                                          ;$C2 - 'В'
 393  008609   007F49494936                  DC.B     $00,$7F,$49,$49,$49,$36 
 394                                                          ;$C3 - 'Г'
 395  00860F   007F01010101                  DC.B     $00,$7F,$01,$01,$01,$01 
 396                                                          ;$C4 - 'Д'
 397  008615   C07E41417FC0                  DC.B     $C0,$7E,$41,$41,$7F,$C0 
 398                                                          ;$C5 - 'Е'
 399  00861B   007F49494941                  DC.B     $00,$7F,$49,$49,$49,$41 
 400                                                          ;$C6 - 'Ж'
 401  008621   0077087F0877                  DC.B     $00,$77,$08,$7F,$08,$77 
 402                                                          ;$C7 - 'З'
 403  008627   224949493600                  DC.B     $22,$49,$49,$49,$36,$00 
 404                                                          ;$C8 - 'И'
STMicroelectronics list file postprocessor v1.01   (C)2009-2014   Sun Jul 06 23:27:10 2014
Page 22  Assembler
                                               e:\stm_project\stm8s105c6t6\assembler\project_2\general.asm

 405  00862D   007F2010087F                  DC.B     $00,$7F,$20,$10,$08,$7F 
 406                                                          ;$C9 - 'Й'
 407  008633   007E2111097E                  DC.B     $00,$7E,$21,$11,$09,$7E 
 408                                                          ;$CA - 'К'
 409  008639   007F08142241                  DC.B     $00,$7F,$08,$14,$22,$41 
 410                                                          ;$CB - 'Л'
 411  00863F   00407E01017F                  DC.B     $00,$40,$7E,$01,$01,$7F 
 412                                                          ;$CC - 'М'
 413  008645   007F0204027F                  DC.B     $00,$7F,$02,$04,$02,$7F 
 414                                                          ;$CD - 'Н'
 415  00864B   007F0808087F                  DC.B     $00,$7F,$08,$08,$08,$7F 
 416                                                          ;$CE - 'О'
 417  008651   003E4141413E                  DC.B     $00,$3E,$41,$41,$41,$3E 
 418                                                          ;$CF - 'П'
 419  008657   007F0101017F                  DC.B     $00,$7F,$01,$01,$01,$7F 
 420                                                          ;$D0 - 'Р'
 421  00865D   007F09090906                  DC.B     $00,$7F,$09,$09,$09,$06 
 422                                                          ;$D1 - 'С'
 423  008663   003E41414122                  DC.B     $00,$3E,$41,$41,$41,$22 
 424                                                          ;$D2 - 'Т'
 425  008669   0001017F0101                  DC.B     $00,$01,$01,$7F,$01,$01 
 426                                                          ;$D3 - 'У'
 427  00866F   00274848483F                  DC.B     $00,$27,$48,$48,$48,$3F 
 428                                                          ;$D4 - 'Ф'
 429  008675   000E117F110E                  DC.B     $00,$0E,$11,$7F,$11,$0E 
 430                                                          ;$D5 - 'Х'
 431  00867B   006314081463                  DC.B     $00,$63,$14,$08,$14,$63 
 432                                                          ;$D6 - 'Ц'
 433  008681   007F40407FC0                  DC.B     $00,$7F,$40,$40,$7F,$C0 
 434                                                          ;$D7 - 'Ч'
 435  008687   00070808087F                  DC.B     $00,$07,$08,$08,$08,$7F 
 436                                                          ;$D8 - 'Ш'
 437  00868D   007F407F407F                  DC.B     $00,$7F,$40,$7F,$40,$7F 
 438                                                          ;$D9 - 'Щ'
 439  008693   007F407F40FF                  DC.B     $00,$7F,$40,$7F,$40,$FF 
 440                                                          ;$DA - 'Ъ'
 441  008699   03017F484830                  DC.B     $03,$01,$7F,$48,$48,$30 
 442                                                          ;$DB - 'Ы'
 443  00869F   007F4848307F                  DC.B     $00,$7F,$48,$48,$30,$7F 
 444                                                          ;$DC - 'Ь'
 445  0086A5   007F48484830                  DC.B     $00,$7F,$48,$48,$48,$30 
 446                                                          ;$DD - 'Э'
 447  0086AB   00224149493E                  DC.B     $00,$22,$41,$49,$49,$3E 
 448                                                          ;$DE - 'Ю'
 449  0086B1   007F083E413E                  DC.B     $00,$7F,$08,$3E,$41,$3E 
 450                                                          ;$DF - 'Я'
 451  0086B7   00661909097F                  DC.B     $00,$66,$19,$09,$09,$7F 
 452                                                          ;$E0 - 'а'
 453  0086BD   002054545478                  DC.B     $00,$20,$54,$54,$54,$78 
 454                                                          ;$E1 - 'б'
 455  0086C3   003C4A4A4A31                  DC.B     $00,$3C,$4A,$4A,$4A,$31 
 456                                                          ;$E2 - 'в'
 457  0086C9   007C54545428                  DC.B     $00,$7C,$54,$54,$54,$28 
 458                                                          ;$E3 - 'г'
 459  0086CF   007C04040C00                  DC.B     $00,$7C,$04,$04,$0C,$00 
 460                                                          ;$E4 - 'д'
 461  0086D5   C07844447CC0                  DC.B     $C0,$78,$44,$44,$7C,$C0 
STMicroelectronics list file postprocessor v1.01   (C)2009-2014   Sun Jul 06 23:27:10 2014
Page 23  Assembler
                                               e:\stm_project\stm8s105c6t6\assembler\project_2\general.asm

 462                                                          ;$E5 - 'е'
 463  0086DB   003854545408                  DC.B     $00,$38,$54,$54,$54,$08 
 464                                                          ;$E6 - 'ж'
 465  0086E1   006C107C106C                  DC.B     $00,$6C,$10,$7C,$10,$6C 
 466                                                          ;$E7 - 'з'
 467  0086E7   002844545428                  DC.B     $00,$28,$44,$54,$54,$28 
 468                                                          ;$E8 - 'и'
 469  0086ED   007C2010087C                  DC.B     $00,$7C,$20,$10,$08,$7C 
 470                                                          ;$E9 - 'й'
 471  0086F3   007C20120A7C                  DC.B     $00,$7C,$20,$12,$0A,$7C 
 472                                                          ;$EA - 'к'
 473  0086F9   007C10284400                  DC.B     $00,$7C,$10,$28,$44,$00 
 474                                                          ;$EB - 'л'
 475  0086FF   403804047C00                  DC.B     $40,$38,$04,$04,$7C,$00 
 476                                                          ;$EC - 'м'
 477  008705   007C0810087C                  DC.B     $00,$7C,$08,$10,$08,$7C 
 478                                                          ;$ED - 'н'
 479  00870B   007C1010107C                  DC.B     $00,$7C,$10,$10,$10,$7C 
 480                                                          ;$EE - 'о'
 481  008711   003844444438                  DC.B     $00,$38,$44,$44,$44,$38 
 482                                                          ;$EF - 'п'
 483  008717   007C0404047C                  DC.B     $00,$7C,$04,$04,$04,$7C 
 484                                                          ;$F0 - 'р'
 485  00871D   00FC44444438                  DC.B     $00,$FC,$44,$44,$44,$38 
 486                                                          ;$F1 - 'с'
 487  008723   003844444428                  DC.B     $00,$38,$44,$44,$44,$28 
 488                                                          ;$F2 - 'т'
 489  008729   0004047C0404                  DC.B     $00,$04,$04,$7C,$04,$04 
 490                                                          ;$F3 - 'у'
 491  00872F   009CA0603C00                  DC.B     $00,$9C,$A0,$60,$3C,$00 
 492                                                          ;$F4 - 'ф'
 493  008735   0018247C2418                  DC.B     $00,$18,$24,$7C,$24,$18 
 494                                                          ;$F5 - 'х'
 495  00873B   006C10106C00                  DC.B     $00,$6C,$10,$10,$6C,$00 
 496                                                          ;$F6 - 'ц'
 497  008741   007C40407CC0                  DC.B     $00,$7C,$40,$40,$7C,$C0 
 498                                                          ;$F7 - 'ч'
 499  008747   000C1010107C                  DC.B     $00,$0C,$10,$10,$10,$7C 
 500                                                          ;$F8 - 'ш'
 501  00874D   007C407C407C                  DC.B     $00,$7C,$40,$7C,$40,$7C 
 502                                                          ;$F9 - 'щ'
 503  008753   007C407C40FC                  DC.B     $00,$7C,$40,$7C,$40,$FC 
 504                                                          ;$FA - 'ъ'
 505  008759   0C047C505020                  DC.B     $0C,$04,$7C,$50,$50,$20 
 506                                                          ;$FB - 'ы'
 507  00875F   007C5050207C                  DC.B     $00,$7C,$50,$50,$20,$7C 
 508                                                          ;$FC - 'ь'
 509  008765   007C50505020                  DC.B     $00,$7C,$50,$50,$50,$20 
 510                                                          ;$FD - 'э'
 511  00876B   002844545438                  DC.B     $00,$28,$44,$54,$54,$38 
 512                                                          ;$FE - 'ю'
 513  008771   007C10384438                  DC.B     $00,$7C,$10,$38,$44,$38 
 514                                                          ;$FF - 'я'
<END_OF_INCLUSION>
   0  008777                                 #include "BasicMath.asm"
   1                         ;=============================================================
                               ;=======================
   2                                   SEGMENT  'ROM'
STMicroelectronics list file postprocessor v1.01   (C)2009-2014   Sun Jul 06 23:27:10 2014
Page 24  Assembler
                                               e:\stm_project\stm8s105c6t6\assembler\project_2\general.asm

   3                         ;=============================================================
                               ;=======================
   4                         Mul16x16:  
   5  008777   89                            PUSHW    X
   6  008778   5E                            SWAPW    X
   7  008779   B62D                          LD       A,Arg2L
   8  00877B   42                            MUL      X, A
   9  00877C   89                            PUSHW    X
  10  00877D   1E03                          LDW      X,($3,SP)
  11  00877F   B62D                          LD       A,Arg2L
  12  008781   42                            MUL      X,A
  13  008782   72FB01                        ADDW     X,($1,SP)
  14  008785   4F                            CLR      A
  15  008786   02                            RLWA     X,A
  16  008787   89                            PUSHW    X
  17  008788   1E05                          LDW      X,($5,SP)
  18  00878A   B62E                          LD       A,Arg2H
  19  00878C   42                            MUL      X,A
  20  00878D   72FB01                        ADDW     X,($1,SP)
  21  008790   5B06                          ADDW     SP,#$06
  22  008792   81                            RET      
  23                         ;=============================================================
                               ;=======================
  24  008793                       Sin       MACRO    Alpha1,LengthVector1,Result1,Sign1  ; 1.5 Degrees=1 Alpha
  25                                   MOV      Alpha,Alpha1
  26                                   MOV      Length,LengthVector1
  27                                   call     lSin
  28                                   MOV      Result1,Result
  29                                   MOV      Sign1,Sign
  30  008793                                 MEND     
  31                         lSin:     
  32  008793   B629                          LD       A,Alpha
  33  008795   A13B                          CP       A,#59
  34  008797   2310                          JRULE    Vector0_59
  35  008799   A177                          CP       A,#119
  36  00879B   2318                          JRULE    Vector60_119
  37  00879D   A1B3                          CP       A,#179
  38  00879F   232C                          JRULE    Vector120_179
  39  0087A1   A1EF                          CP       A,#239
  40  0087A3   233A                          JRULE    Vector180_239
  41  0087A5   CD881C                        call     Vector0
  42  0087A8   81                            RET      
  43                         Vector0_59:  
  44  0087A9   A100                          CP       A,#0
  45  0087AB   276F                          JREQ     Vector0
  46                                                          ;----
  47  0087AD   3501002B                      MOV      Sign,#$01
  48                                                          ;----
  49  0087B1   CD87F7                        call     CalcSin
  50                                                          ;----
  51  0087B4   81                            RET      
  52                         Vector60_119:  
  53  0087B5   A13C                          CP       A,#60
  54  0087B7   276C                          JREQ     Vector1
  55                                                          ;----
  56  0087B9   3501002B                      MOV      Sign,#$01
  57  0087BD   B629                          LD       A,Alpha
STMicroelectronics list file postprocessor v1.01   (C)2009-2014   Sun Jul 06 23:27:10 2014
Page 25  Assembler
                                               e:\stm_project\stm8s105c6t6\assembler\project_2\general.asm

  58  0087BF   A03C                          SUB      A,#60
  59  0087C1   B729                          LD       Alpha,A
  60  0087C3   A63C                          LD       A,#60
  61  0087C5   B029                          SUB      A,Alpha
  62  0087C7   B729                          LD       Alpha,A       
  63                                                          ;----
  64  0087C9   CD87F7                        call     CalcSin
  65                                                          ;----
  66  0087CC   81                            RET      
  67                         Vector120_179:  
  68  0087CD   A178                          CP       A,#120
  69  0087CF   274B                          JREQ     Vector0
  70                                                          ;----
  71  0087D1   3502002B                      MOV      Sign,#$02
  72  0087D5   B629                          LD       A,Alpha
  73  0087D7   A078                          SUB      A,#120
  74  0087D9   B729                          LD       Alpha,A
  75                                                          ;----
  76  0087DB   CD87F7                        call     CalcSin
  77                                                          ;----
  78  0087DE   81                            RET      
  79                         Vector180_239:  
  80  0087DF   A1B4                          CP       A,#180
  81  0087E1   274A                          JREQ     Vector_1
  82                                                          ;----
  83  0087E3   3502002B                      MOV      Sign,#$02
  84  0087E7   B629                          LD       A,Alpha
  85  0087E9   A0B4                          SUB      A,#180
  86  0087EB   B729                          LD       Alpha,A
  87  0087ED   A63C                          LD       A,#60
  88  0087EF   B029                          SUB      A,Alpha
  89  0087F1   B729                          LD       Alpha,A
  90                                                          ;----
  91  0087F3   CD87F7                        call     CalcSin
  92                                                          ;----
  93  0087F6   81                            RET      
  94                         CalcSin:  
  95                                                          ;(Sin(Alpha)*Length)/10000=Resul
                                                                ;t
  96  0087F7   B629                          LD       A,Alpha
  97  0087F9   97                            LD       XL,A
  98  0087FA   A602                          LD       A,#$02
  99  0087FC   42                            MUL      X,A
 100  0087FD   DE8899                        LDW      X,(Sinus,X)
 101  008800   B62A                          LD       A,Length
 102  008802   BF2D                          LDW      Arg2L,X 
 103  008804   5F                            CLRW     X
 104  008805   97                            LD       XL,A
 105  008806   CD8777                        call     Mul16x16
 106  008809   90AE03E8                      LDW      Y,#1000
 107  00880D   65                            DIVW     X,Y
 108  00880E   9F                            LD       A,XL
 109  00880F   90A301F4                      CPW      Y,#500
 110  008813   2403                          JRUGE    INCResult
 111  008815   B72C                          LD       Result,A
 112  008817   81                            RET      
 113                         INCResult:  
STMicroelectronics list file postprocessor v1.01   (C)2009-2014   Sun Jul 06 23:27:10 2014
Page 26  Assembler
                                               e:\stm_project\stm8s105c6t6\assembler\project_2\general.asm

 114  008818   4C                            INC      A
 115  008819   B72C                          LD       Result,A
 116  00881B   81                            RET      
 117                         ;=============================================================
                               ;=======================
 118                         Vector0:  
 119  00881C   3500002C                      MOV      Result,#$00
 120  008820   3500002B                      MOV      Sign,#$00
 121  008824   81                            RET      
 122                         Vector1:  
 123  008825   452A2C                        MOV      Result,Length
 124  008828   3501002B                      MOV      Sign,#$01
 125  00882C   81                            RET      
 126                         Vector_1:  
 127  00882D   452A2C                        MOV      Result,Length
 128  008830   3502002B                      MOV      Sign,#$02
 129  008834   81                            RET      
 130                         ;=============================================================
                               ;=======================	
 131  008835                       Cos       MACRO    Alpha1,LengthVector1,Result1,Sign1  ; 1.5 Degrees=1 Alpha
 132                                   MOV      Alpha,Alpha1
 133                                   MOV      Length,LengthVector1
 134                                   call     lCos
 135                                   MOV      Result1,Result
 136                                   MOV      Sign1,Sign
 137  008835                                 MEND     
 138                         lCos:     
 139  008835   B629                          LD       A,Alpha
 140  008837   A13B                          CP       A,#59
 141  008839   2310                          JRULE    Vector0_592
 142  00883B   A177                          CP       A,#119
 143  00883D   231E                          JRULE    Vector60_1192
 144  00883F   A1B3                          CP       A,#179
 145  008841   232C                          JRULE    Vector120_1792
 146  008843   A1EF                          CP       A,#239
 147  008845   2340                          JRULE    Vector180_2392
 148  008847   CD8825                        call     Vector1
 149  00884A   81                            RET      
 150                         Vector0_592:  
 151  00884B   A100                          CP       A,#0
 152  00884D   27D6                          JREQ     Vector1
 153                                                          ;----
 154  00884F   3501002B                      MOV      Sign,#$01
 155  008853   A63C                          LD       A,#60
 156  008855   B029                          SUB      A,Alpha
 157  008857   B729                          LD       Alpha,A       
 158                                                          ;----
 159  008859   CD87F7                        call     CalcSin
 160                                                          ;----
 161  00885C   81                            RET      
 162                         Vector60_1192:  
 163  00885D   A13C                          CP       A,#60
 164  00885F   27BB                          JREQ     Vector0
 165                                                          ;----
 166  008861   3502002B                      MOV      Sign,#$02
 167  008865   B629                          LD       A,Alpha
 168  008867   A03C                          SUB      A,#60
STMicroelectronics list file postprocessor v1.01   (C)2009-2014   Sun Jul 06 23:27:10 2014
Page 27  Assembler
                                               e:\stm_project\stm8s105c6t6\assembler\project_2\general.asm

 169  008869   B729                          LD       Alpha,A
 170                                                          ;----
 171  00886B   CD87F7                        call     CalcSin
 172                                                          ;----
 173  00886E   81                            RET      
 174                         Vector120_1792:  
 175  00886F   A178                          CP       A,#120
 176  008871   27BA                          JREQ     Vector_1
 177                                                          ;----
 178  008873   3502002B                      MOV      Sign,#$02
 179  008877   B629                          LD       A,Alpha
 180  008879   A078                          SUB      A,#120
 181  00887B   B729                          LD       Alpha,A
 182  00887D   A63C                          LD       A,#60
 183  00887F   B029                          SUB      A,Alpha
 184  008881   B729                          LD       Alpha,A       
 185                                                          ;----
 186  008883   CD87F7                        call     CalcSin
 187                                                          ;----
 188  008886   81                            RET      
 189                         Vector180_2392:  
 190  008887   A1B4                          CP       A,#180
 191  008889   2791                          JREQ     Vector0
 192                                                          ;----
 193  00888B   3501002B                      MOV      Sign,#$01
 194  00888F   B629                          LD       A,Alpha
 195  008891   A0B4                          SUB      A,#180
 196  008893   B729                          LD       Alpha,A
 197                                                          ;----
 198  008895   CD87F7                        call     CalcSin
 199                                                          ;----
 200  008898   81                            RET      
 201                         ;=============================================================
                               ;=======================	
 202                         Sinus:    
 203  008899   0000001A0034004F    
 203  0088A1   00690083009D00B6              
 203  0088A9   00D000EA0103011C              
 203  0088B1   0135014E0166                  DC.W     0,  26, 52, 79, 105,131,157,182,208,234,259,284,309,334,358
 204  0088B7   017F019701AF01C6    
 204  0088BF   01DD01F4020B0221              
 204  0088C7   0237024C02610275              
 204  0088CF   028A029D02B0                  DC.W     383,407,431,454,477,500,523,545,567,588,609,629,650,669,688
 205  0088D5   02C302D502E702F9    
 205  0088DD   0309031903290338              
 205  0088E5   034703550362036F              
 205  0088ED   037B03870392                  DC.W     707,725,743,761,777,793,809,824,839,853,866,879,891,903,914
 206  0088F3   039C03A603AF03B7    
 206  0088FB   03BF03C603CC03D2              
 206  008903   03D703DC03E003E3              
 206  00890B   03E503E603E7                  DC.W     924,934,943,951,959,966,972,978,983,988,992,995,997,998,999
 207                         ;=============================================================
                               ;=======================
 208  008911                       ProjectionOnXY  MACRO    X1,Y1,LengthVector,Alpha,X2,Y2
 209                                   MOV      XS,X1
 210                                   MOV      YS,Y1
 211                                   MOV      LengthLine,LengthVector
STMicroelectronics list file postprocessor v1.01   (C)2009-2014   Sun Jul 06 23:27:10 2014
Page 28  Assembler
                                               e:\stm_project\stm8s105c6t6\assembler\project_2\general.asm

 212                                   MOV      Angle,Alpha
 213                                   call     lProjectionXY
 214                                   MOV      X2,XE
 215                                   MOV      Y2,YE
 216  008911                                 MEND     
 217                         lProjectionXY:  
 218                                   Sin      Angle,LengthLine,YE,Var1
 218  008911   453229                        MOV      Alpha,Angle
 218  008914   45312A                        MOV      Length,LengthLine
 218  008917   CD8793                        call     lSin
 218  00891A   452C34                        MOV      YE,Result
 218  00891D   452B35                        MOV      Var1,Sign
 219  008920                                 Cos      Angle,LengthLine,XE,Var2
 219  008920   453229                        MOV      Alpha,Angle
 219  008923   45312A                        MOV      Length,LengthLine
 219  008926   CD8835                        call     lCos
 219  008929   452C33                        MOV      XE,Result
 219  00892C   452B36                        MOV      Var2,Sign
 220  00892F   B635                          LD       A,Var1
 221  008931   A101                          CP       A,#$01
 222  008933   2213                          JRUGT    MinusSin
 223  008935   B630                          LD       A,YS
 224  008937   BB34                          ADD      A,YE
 225  008939   B734                          LD       YE,A
 226                         MinusSinReturn:  
 227  00893B   B636                          LD       A,Var2
 228  00893D   A101                          CP       A,#$01
 229  00893F   2210                          JRUGT    MinusCos
 230  008941   B62F                          LD       A,XS
 231  008943   BB33                          ADD      A,XE
 232  008945   B733                          LD       XE,A
 233  008947   81                            RET      
 234                         MinusSin:  
 235  008948   B630                          LD       A,YS
 236  00894A   B034                          SUB      A,YE
 237  00894C   B734                          LD       YE,A
 238  00894E   CC893B                        JP       MinusSinReturn
 239                         MinusCos:  
 240  008951   B62F                          LD       A,XS
 241  008953   B033                          SUB      A,XE
 242  008955   B733                          LD       XE,A
 243  008957   81                            RET      
 244                         ;=============================================================
                               ;=======================  
 245  008958                       SetBit    MACRO    Reg,Position
 246                                   LD       A,Position
 247                                   call     lSetBit
 248                                   MOV      Reg,Posit
 249  008958                                 MEND     
 250                         lSetBit:  
 251  008958   3501000D                      MOV      Posit,#$1
 252  00895C   A100                          CP       A,#0
 253  00895E   2601                          JRNE     lSetBit2
 254  008960   81                            RET      
 255                         lSetBit2:  
 256  008961   4A                            DEC      A
 257  008962   380D                          SLL      Posit
STMicroelectronics list file postprocessor v1.01   (C)2009-2014   Sun Jul 06 23:27:10 2014
Page 29  Assembler
                                               e:\stm_project\stm8s105c6t6\assembler\project_2\general.asm

 258  008964   A100                          CP       A,#0
 259  008966   26F9                          JRNE     lSetBit2
 260  008968   81                            RET      
 261                         ;=============================================================
                               ;=======================
<END_OF_INCLUSION>
   4                         ;=============================================================
                               ;=======================
   5  000001                       CS        EQU      1
   6  00501E                       LCDPort   EQU      PORTG
   7                         ;=============================================================
                               ;=======================
   8                                   SEGMENT  'ROM'
   9                         ;=============================================================
                               ;=======================
  10  008969                       DelayUs   MACRO    Cycle
  11                                   MOV      DelayCycle,Cycle
  12                                   call     Loop
  13  008969                                 MEND     
  14                         Loop:     
  15  008969   3A0E                          DEC      DelayCycle
  16  00896B   26FC                          JRNE     Loop
  17  00896D   81                            RET      
  18                         ;=============================================================
                               ;=======================
  19  00896E                       SendToLCD  MACRO    Data
  20                                   LDW      X,Data
  21                                   call     lSendToLCD
  22  00896E                                 MEND     
  23                         lSendToLCD:  
  24  00896E   9B                            SIM      
  25  00896F   7213501E                      BRES     LCDPort,#CS
  26                                                          ;***Transmission 9-bit*** 
  27  008973   9093                          LDW      Y,X 
  28  008975   9054                          SRLW     Y 
  29  008977   909F                          LD       A,YL
  30  008979   C75204                        LD       SPI_DR,A
  31                         Wait1:    
  32  00897C   720E5203FB                    BTJT     SPI_SR,#7,Wait1
  33  008981   9F                            LD       A,XL          
  34  008982   A401                          AND      A,#$01
  35  008984   98                            RCF      
  36  008985   46                            RRC      A
  37  008986   46                            RRC      A
  38  008987   C75204                        LD       SPI_DR,A
  39                         Wait2:    
  40  00898A   720E5203FB                    BTJT     SPI_SR,#7,Wait2
  41  00898F   7212501E                      BSET     LCDPort,#CS
  42  008993   9A                            RIM      
  43  008994   81                            RET      
  44                         ;=============================================================
                               ;=======================
  45  008995                       DrawFillRectangle  MACRO    XRect,YRect,WRect,HRect,Red,Green,Blue
  46                                   MOV      Temp1,XRect
  47                                   MOV      Temp,YRect
  48                                   MOV      Temp3,WRect
  49                                   MOV      Temp2,HRect
  50                                   MOV      Temp4,Red
STMicroelectronics list file postprocessor v1.01   (C)2009-2014   Sun Jul 06 23:27:10 2014
Page 30  Assembler
                                               e:\stm_project\stm8s105c6t6\assembler\project_2\general.asm

  51                                   MOV      Temp5,Green
  52                                   MOV      Temp6,Blue
  53                                   call     lDrawFillRect
  54  008995                                 MEND     
  55                         lDrawFillRect:  
  56                                   SendToLCD #$002A        
  56  008995   AE002A                        LDW      X,#$002A
  56  008998   CD896E                        call     lSendToLCD
  57  00899B   AE0100                        LDW      X,#$0100
  58  00899E   B600                          LD       A,Temp
  59  0089A0   97                            LD       XL,A
  60  0089A1   CD896E                        call     lSendToLCD
  61  0089A4   AE0100                        LDW      X,#$0100
  62  0089A7   B600                          LD       A,Temp
  63  0089A9   BB02                          ADD      A,Temp2
  64  0089AB   A001                          SUB      A,#$01
  65  0089AD   97                            LD       XL,A
  66  0089AE   CD896E                        call     lSendToLCD
  67                                   SendToLCD #$002B
  67  0089B1   AE002B                        LDW      X,#$002B
  67  0089B4   CD896E                        call     lSendToLCD
  68  0089B7   AE0100                        LDW      X,#$0100
  69  0089BA   B601                          LD       A,Temp1
  70  0089BC   97                            LD       XL,A
  71  0089BD   CD896E                        call     lSendToLCD
  72  0089C0   AE0100                        LDW      X,#$0100
  73  0089C3   B601                          LD       A,Temp1
  74  0089C5   BB03                          ADD      A,Temp3
  75  0089C7   A001                          SUB      A,#$01
  76  0089C9   97                            LD       XL,A
  77  0089CA   CD896E                        call     lSendToLCD 
  78                                   SendToLCD #$002C
  78  0089CD   AE002C                        LDW      X,#$002C
  78  0089D0   CD896E                        call     lSendToLCD
  79  0089D3   B602                          LD       A,Temp2
  80  0089D5   97                            LD       XL,A
  81  0089D6   B603                          LD       A,Temp3
  82  0089D8   42                            MUL      X,A
  83  0089D9   89                            PUSHW    X
  84                                                          ;Convert color mode
  85  0089DA   905F                          CLRW     Y
  86  0089DC   5F                            CLRW     X
  87  0089DD   B604                          LD       A,Temp4
  88  0089DF   A4F8                          AND      A,#%11111000
  89  0089E1   9095                          LD       YH,A
  90  0089E3   B605                          LD       A,Temp5
  91  0089E5   A4FC                          AND      A,#%11111100
  92  0089E7   97                            LD       XL,A
  93  0089E8   A604                          LD       A,#$04
  94  0089EA   42                            MUL      X,A
  95  0089EB   58                            SLLW     X
  96  0089EC   B606                          LD       A,Temp6
  97  0089EE   44                            SRL      A
  98  0089EF   44                            SRL      A
  99  0089F0   44                            SRL      A
 100  0089F1   B706                          LD       Temp6,A
 101  0089F3   9F                            LD       A,XL
STMicroelectronics list file postprocessor v1.01   (C)2009-2014   Sun Jul 06 23:27:10 2014
Page 31  Assembler
                                               e:\stm_project\stm8s105c6t6\assembler\project_2\general.asm

 102  0089F4   BB06                          ADD      A,Temp6
 103  0089F6   97                            LD       XL,A
 104  0089F7   909E                          LD       A,YH
 105  0089F9   B704                          LD       Temp4,A
 106  0089FB   9E                            LD       A,XH
 107  0089FC   BB04                          ADD      A,Temp4
 108  0089FE   B704                          LD       Temp4,A
 109  008A00   9F                            LD       A,XL
 110  008A01   B705                          LD       Temp5,A
 111                                                          ;------------------
 112  008A03   85                            POPW     X             
 113  008A04   A30000                        CPW      X,#$0000
 114  008A07   2601                          JRNE     SendData
 115  008A09   81                            RET      
 116                         SendData:  
 117  008A0A   89                            PUSHW    X
 118  008A0B   AE0100                        LDW      X,#$0100
 119  008A0E   B604                          LD       A,Temp4
 120  008A10   97                            LD       XL,A
 121  008A11   CD896E                        call     lSendToLCD
 122  008A14   AE0100                        LDW      X,#$0100
 123  008A17   B605                          LD       A,Temp5
 124  008A19   97                            LD       XL,A
 125  008A1A   CD896E                        call     lSendToLCD
 126  008A1D   85                            POPW     X
 127  008A1E   5A                            DECW     X
 128  008A1F   26E9                          JRNE     SendData
 129  008A21   81                            RET      
 130                         ;=============================================================
                               ;=======================
 131  008A22                       DrawPoint  MACRO    X1,Y1,Red,Green,Blue
 132                                   MOV      Temp,X1
 133                                   MOV      Temp1,Y1
 134                                   MOV      Temp4,Red
 135                                   MOV      Temp5,Green
 136                                   MOV      Temp6,Blue
 137                                   call     lDrawPoint
 138  008A22                                 MEND     
 139                         lDrawPoint:  
 140                                                          ;SIM
 141                                   SendToLCD #$002A        
 141  008A22   AE002A                        LDW      X,#$002A
 141  008A25   CD896E                        call     lSendToLCD
 142  008A28   AE0100                        LDW      X,#$0100
 143  008A2B   B601                          LD       A,Temp1
 144  008A2D   97                            LD       XL,A
 145  008A2E   CD896E                        call     lSendToLCD
 146  008A31   CD896E                        call     lSendToLCD
 147                                   SendToLCD #$002B
 147  008A34   AE002B                        LDW      X,#$002B
 147  008A37   CD896E                        call     lSendToLCD
 148  008A3A   AE0100                        LDW      X,#$0100
 149  008A3D   B600                          LD       A,Temp
 150  008A3F   97                            LD       XL,A
 151  008A40   CD896E                        call     lSendToLCD
 152  008A43   CD896E                        call     lSendToLCD 
 153                                   SendToLCD #$002C
STMicroelectronics list file postprocessor v1.01   (C)2009-2014   Sun Jul 06 23:27:10 2014
Page 32  Assembler
                                               e:\stm_project\stm8s105c6t6\assembler\project_2\general.asm

 153  008A46   AE002C                        LDW      X,#$002C
 153  008A49   CD896E                        call     lSendToLCD
 154  008A4C                                                        ;Convert color mode
 155  008A4C   905F                          CLRW     Y
 156  008A4E   5F                            CLRW     X
 157  008A4F   B604                          LD       A,Temp4
 158  008A51   A4F8                          AND      A,#%11111000
 159  008A53   9095                          LD       YH,A
 160  008A55   B605                          LD       A,Temp5
 161  008A57   A4FC                          AND      A,#%11111100
 162  008A59   97                            LD       XL,A
 163  008A5A   A604                          LD       A,#$04
 164  008A5C   42                            MUL      X,A
 165  008A5D   58                            SLLW     X
 166  008A5E   B606                          LD       A,Temp6
 167  008A60   44                            SRL      A
 168  008A61   44                            SRL      A
 169  008A62   44                            SRL      A
 170  008A63   B706                          LD       Temp6,A
 171  008A65   9F                            LD       A,XL
 172  008A66   BB06                          ADD      A,Temp6
 173  008A68   97                            LD       XL,A
 174  008A69   909E                          LD       A,YH
 175  008A6B   B704                          LD       Temp4,A
 176  008A6D   9E                            LD       A,XH
 177  008A6E   BB04                          ADD      A,Temp4
 178  008A70   B704                          LD       Temp4,A
 179  008A72   9F                            LD       A,XL
 180  008A73   B705                          LD       Temp5,A
 181                                                          ;------------------
 182  008A75   AE0100                        LDW      X,#$0100
 183  008A78   B604                          LD       A,Temp4
 184  008A7A   97                            LD       XL,A
 185  008A7B   CD896E                        call     lSendToLCD
 186  008A7E   AE0100                        LDW      X,#$0100
 187  008A81   B605                          LD       A,Temp5
 188  008A83   97                            LD       XL,A
 189  008A84   CD896E                        call     lSendToLCD
 190  008A87   81                            RET      
 191                         ;=============================================================
                               ;=======================
 192  008A88                       DrawRectangle  MACRO    XRect,YRect,WRect,HRect,Red,Green,Blue
 193                                   MOV      Temp7,XRect
 194                                   MOV      Temp8,YRect
 195                                   MOV      Temp9,WRect
 196                                   MOV      Temp10,HRect
 197                                   MOV      Temp14,Red
 198                                   MOV      Temp15,Green
 199                                   MOV      Temp16,Blue
 200                                   call     DrawRect
 201  008A88                                 MEND     
 202                         DrawRect:  
 203                                                          ;SIM
 204                                   DrawFillRectangle Temp7,Temp8,Temp9,#1,Temp14,Temp15,Temp16
 204  008A88   450701                        MOV      Temp1,Temp7
 204  008A8B   450800                        MOV      Temp,Temp8
 204  008A8E   450903                        MOV      Temp3,Temp9
STMicroelectronics list file postprocessor v1.01   (C)2009-2014   Sun Jul 06 23:27:10 2014
Page 33  Assembler
                                               e:\stm_project\stm8s105c6t6\assembler\project_2\general.asm

 204  008A91   35010002                      MOV      Temp2,#1
 204  008A95   451004                        MOV      Temp4,Temp14
 204  008A98   451105                        MOV      Temp5,Temp15
 204  008A9B   451206                        MOV      Temp6,Temp16
 204  008A9E   CD8995                        call     lDrawFillRect
 205  008AA1                                 DrawFillRectangle Temp7,Temp8,#1,Temp10,Temp14,Temp15,Temp16
 205  008AA1   450701                        MOV      Temp1,Temp7
 205  008AA4   450800                        MOV      Temp,Temp8
 205  008AA7   35010003                      MOV      Temp3,#1
 205  008AAB   450A02                        MOV      Temp2,Temp10
 205  008AAE   451004                        MOV      Temp4,Temp14
 205  008AB1   451105                        MOV      Temp5,Temp15
 205  008AB4   451206                        MOV      Temp6,Temp16
 205  008AB7   CD8995                        call     lDrawFillRect
 206  008ABA   B607                          LD       A,Temp7
 207  008ABC   BB09                          ADD      A,Temp9
 208  008ABE   A001                          SUB      A,#1
 209  008AC0   B703                          LD       Temp3,A
 210                                   DrawFillRectangle Temp3,Temp8,#1,Temp10,Temp14,Temp15,Temp16
 210  008AC2   450301                        MOV      Temp1,Temp3
 210  008AC5   450800                        MOV      Temp,Temp8
 210  008AC8   35010003                      MOV      Temp3,#1
 210  008ACC   450A02                        MOV      Temp2,Temp10
 210  008ACF   451004                        MOV      Temp4,Temp14
 210  008AD2   451105                        MOV      Temp5,Temp15
 210  008AD5   451206                        MOV      Temp6,Temp16
 210  008AD8   CD8995                        call     lDrawFillRect
 211  008ADB   B608                          LD       A,Temp8
 212  008ADD   BB0A                          ADD      A,Temp10
 213  008ADF   A001                          SUB      A,#1
 214  008AE1   B703                          LD       Temp3,A
 215                                   DrawFillRectangle Temp7,Temp3,Temp9,#1,Temp14,Temp15,Temp16
 215  008AE3   450701                        MOV      Temp1,Temp7
 215  008AE6   450300                        MOV      Temp,Temp3
 215  008AE9   450903                        MOV      Temp3,Temp9
 215  008AEC   35010002                      MOV      Temp2,#1
 215  008AF0   451004                        MOV      Temp4,Temp14
 215  008AF3   451105                        MOV      Temp5,Temp15
 215  008AF6   451206                        MOV      Temp6,Temp16
 215  008AF9   CD8995                        call     lDrawFillRect
 216  008AFC   81                            RET      
 217                         ;=============================================================
                               ;=======================
 218  008AFD                       DrawProgressBar  MACRO    XProgress,YProgress,Percent
 219                                   MOV      Temp11,XProgress
 220                                   MOV      Temp12,YProgress
 221                                   MOV      Temp13,Percent  
 222                                   call     DrawProgress
 223  008AFD                                 MEND     
 224                         DrawProgress:  
 225  008AFD   3C0B                          INC      Temp11
 226  008AFF   3C0B                          INC      Temp11
 227  008B01   3C0C                          INC      Temp12
 228  008B03   3C0C                          INC      Temp12
 229  008B05   450F10                        MOV      Temp14,Temp13
 230  008B08   A6FF                          LD       A,#255
 231  008B0A   B00F                          SUB      A,Temp13
STMicroelectronics list file postprocessor v1.01   (C)2009-2014   Sun Jul 06 23:27:10 2014
Page 34  Assembler
                                               e:\stm_project\stm8s105c6t6\assembler\project_2\general.asm

 232  008B0C   B711                          LD       Temp15,A
 233  008B0E   B60F                          LD       A,Temp13
 234  008B10   5F                            CLRW     X
 235  008B11   97                            LD       XL,A
 236  008B12   A603                          LD       A,#3
 237  008B14   62                            DIV      X,A
 238  008B15   9F                            LD       A,XL
 239  008B16   B70F                          LD       Temp13,A
 240                                   DrawFillRectangle Temp11,Temp12,Temp13,#15,Temp15,Temp14,#$00  
 240  008B18   450B01                        MOV      Temp1,Temp11
 240  008B1B   450C00                        MOV      Temp,Temp12
 240  008B1E   450F03                        MOV      Temp3,Temp13
 240  008B21   350F0002                      MOV      Temp2,#15
 240  008B25   451104                        MOV      Temp4,Temp15
 240  008B28   451005                        MOV      Temp5,Temp14
 240  008B2B   35000006                      MOV      Temp6,#$00
 240  008B2F   CD8995                        call     lDrawFillRect
 241  008B32   B60B                          LD       A,Temp11
 242  008B34   A001                          SUB      A,#1
 243  008B36   B70B                          LD       Temp11,A
 244  008B38   B60C                          LD       A,Temp12
 245  008B3A   A001                          SUB      A,#1
 246  008B3C   B70C                          LD       Temp12,A
 247                                   DrawRectangle Temp11,Temp12,#87,#17,#$11,#$22,#$33
 247  008B3E   450B07                        MOV      Temp7,Temp11
 247  008B41   450C08                        MOV      Temp8,Temp12
 247  008B44   35570009                      MOV      Temp9,#87
 247  008B48   3511000A                      MOV      Temp10,#17
 247  008B4C   35110010                      MOV      Temp14,#$11
 247  008B50   35220011                      MOV      Temp15,#$22
 247  008B54   35330012                      MOV      Temp16,#$33
 247  008B58   CD8A88                        call     DrawRect
 248  008B5B   B60B                          LD       A,Temp11
 249  008B5D   A001                          SUB      A,#1
 250  008B5F   B70B                          LD       Temp11,A
 251  008B61   B60C                          LD       A,Temp12
 252  008B63   A001                          SUB      A,#1
 253  008B65   B70C                          LD       Temp12,A
 254                                   DrawRectangle Temp11,Temp12,#89,#19,#$AA,#$AA,#$AA
 254  008B67   450B07                        MOV      Temp7,Temp11
 254  008B6A   450C08                        MOV      Temp8,Temp12
 254  008B6D   35590009                      MOV      Temp9,#89
 254  008B71   3513000A                      MOV      Temp10,#19
 254  008B75   35AA0010                      MOV      Temp14,#$AA
 254  008B79   35AA0011                      MOV      Temp15,#$AA
 254  008B7D   35AA0012                      MOV      Temp16,#$AA
 254  008B81   CD8A88                        call     DrawRect
 255  008B84   B60B                          LD       A,Temp11
 256  008B86   AB02                          ADD      A,#2
 257  008B88   BB0F                          ADD      A,Temp13
 258  008B8A   B70B                          LD       Temp11,A
 259  008B8C   B60C                          LD       A,Temp12
 260  008B8E   AB02                          ADD      A,#2
 261  008B90   B70C                          LD       Temp12,A      
 262  008B92   4F                            CLR      A
 263  008B93   AB55                          ADD      A,#85
 264  008B95   B00F                          SUB      A,Temp13
STMicroelectronics list file postprocessor v1.01   (C)2009-2014   Sun Jul 06 23:27:10 2014
Page 35  Assembler
                                               e:\stm_project\stm8s105c6t6\assembler\project_2\general.asm

 265  008B97   B70F                          LD       Temp13,A
 266                                   DrawFillRectangle Temp11,Temp12,Temp13,#15,#$10,#$10,#$10  
 266  008B99   450B01                        MOV      Temp1,Temp11
 266  008B9C   450C00                        MOV      Temp,Temp12
 266  008B9F   450F03                        MOV      Temp3,Temp13
 266  008BA2   350F0002                      MOV      Temp2,#15
 266  008BA6   35100004                      MOV      Temp4,#$10
 266  008BAA   35100005                      MOV      Temp5,#$10
 266  008BAE   35100006                      MOV      Temp6,#$10
 266  008BB2   CD8995                        call     lDrawFillRect
 267  008BB5   81                            RET      
 268                         ;=============================================================
                               ;=======================
 269  008BB6                       DrawLine  MACRO    X1,Y1,X2,Y2,Red,Green,Blue
 270                                   MOV      XStart,X1
 271                                   MOV      YStart,Y1
 272                                   MOV      XEnd,X2
 273                                   MOV      YEnd,Y2
 274                                   MOV      Temp14,Red
 275                                   MOV      Temp15,Green
 276                                   MOV      Temp16,Blue
 277                                   call     lDrawLine
 278  008BB6                                 MEND     
 279                         Label1:   
 280  008BB6   35010021                      MOV      IncX,#$01
 281  008BBA   B61D                          LD       A,XEnd
 282  008BBC   B01B                          SUB      A,XStart
 283  008BBE   B71F                          LD       dX,A
 284  008BC0   CC8C0C                        JP       Label1and2Return
 285                         Label2:   
 286  008BC3   35000021                      MOV      IncX,#$00
 287  008BC7   3500001F                      MOV      dX,#$00
 288  008BCB   CC8C0C                        JP       Label1and2Return
 289                         Label3:   
 290  008BCE   35010022                      MOV      IncY,#$01
 291  008BD2   B61E                          LD       A,YEnd
 292  008BD4   B01C                          SUB      A,YStart
 293  008BD6   B720                          LD       dY,A
 294  008BD8   CC8C22                        JP       Label3and4Return
 295                         Label4:   
 296  008BDB   35000022                      MOV      IncY,#$00
 297  008BDF   35000020                      MOV      dY,#$00
 298  008BE3   CC8C22                        JP       Label3and4Return
 299                         Label5:   
 300  008BE6   452123                        MOV      pdX,IncX
 301  008BE9   35000024                      MOV      pdY,#$00
 302  008BED   452025                        MOV      ES,dY
 303  008BF0   451F26                        MOV      EL,dX
 304  008BF3   CC8C35                        JP       Label5Return
 305                         ;----------------------
 306                         lDrawLine:  
 307                                                          ;SIM
 308  008BF6   B61D                          LD       A,XEnd
 309  008BF8   B11B                          CP       A,XStart
 310  008BFA   22BA                          JRUGT    Label1
 311  008BFC   B61D                          LD       A,XEnd
 312  008BFE   B11B                          CP       A,XStart
STMicroelectronics list file postprocessor v1.01   (C)2009-2014   Sun Jul 06 23:27:10 2014
Page 36  Assembler
                                               e:\stm_project\stm8s105c6t6\assembler\project_2\general.asm

 313  008C00   27C1                          JREQ     Label2        
 314  008C02   35020021                      MOV      IncX,#$02
 315  008C06   B61B                          LD       A,XStart
 316  008C08   B01D                          SUB      A,XEnd
 317  008C0A   B71F                          LD       dX,A
 318                         Label1and2Return:  
 319                                                          ;---
 320  008C0C   B61E                          LD       A,YEnd
 321  008C0E   B11C                          CP       A,YStart
 322  008C10   22BC                          JRUGT    Label3
 323  008C12   B61E                          LD       A,YEnd
 324  008C14   B11C                          CP       A,YStart
 325  008C16   27C3                          JREQ     Label4        
 326  008C18   35020022                      MOV      IncY,#$02
 327  008C1C   B61C                          LD       A,YStart
 328  008C1E   B01E                          SUB      A,YEnd
 329  008C20   B720                          LD       dY,A
 330                         Label3and4Return:  
 331                                                          ;---
 332  008C22   B61F                          LD       A,dX
 333  008C24   B120                          CP       A,dY
 334  008C26   22BE                          JRUGT    Label5
 335  008C28   35000023                      MOV      pdX,#$00
 336  008C2C   452224                        MOV      pdY,IncY
 337  008C2F   451F25                        MOV      ES,dX
 338  008C32   452026                        MOV      EL,dY
 339                         Label5Return:  
 340                                                          ;---
 341  008C35   B626                          LD       A,EL
 342  008C37   44                            SRL      A
 343  008C38   B727                          LD       Err,A
 344                                   DrawPoint XStart,YStart,Temp14,Temp15,Temp16
 344  008C3A   451B00                        MOV      Temp,XStart
 344  008C3D   451C01                        MOV      Temp1,YStart
 344  008C40   451004                        MOV      Temp4,Temp14
 344  008C43   451105                        MOV      Temp5,Temp15
 344  008C46   451206                        MOV      Temp6,Temp16
 344  008C49   CD8A22                        call     lDrawPoint
 345  008C4C   452628                        MOV      CounterI,EL
 346                         CycleDrawLine:  
 347                                                          ;---+_+_+_+_+_+_
 348  008C4F   B627                          LD       A,Err
 349  008C51   B025                          SUB      A,ES
 350  008C53   B727                          LD       Err,A
 351                                                          ;---
 352  008C55   A180                          CP       A,#128
 353  008C57   222D                          JRUGT    Label6
 354  008C59   7202002347                    BTJT     pdX,#1,Label7
 355  008C5E   B61B                          LD       A,XStart
 356  008C60   BB23                          ADD      A,pdX
 357  008C62   B71B                          LD       XStart,A
 358                         Label7Return:  
 359  008C64   7202002445                    BTJT     pdY,#1,Label8
 360  008C69   B61C                          LD       A,YStart
 361  008C6B   BB24                          ADD      A,pdY
 362  008C6D   B71C                          LD       YStart,A
 363                         Label6Return:  
STMicroelectronics list file postprocessor v1.01   (C)2009-2014   Sun Jul 06 23:27:10 2014
Page 37  Assembler
                                               e:\stm_project\stm8s105c6t6\assembler\project_2\general.asm

 364                                                          ;---+_+_+_+_+_+_
 365                                   DrawPoint XStart,YStart,Temp14,Temp15,Temp16
 365  008C6F   451B00                        MOV      Temp,XStart
 365  008C72   451C01                        MOV      Temp1,YStart
 365  008C75   451004                        MOV      Temp4,Temp14
 365  008C78   451105                        MOV      Temp5,Temp15
 365  008C7B   451206                        MOV      Temp6,Temp16
 365  008C7E   CD8A22                        call     lDrawPoint
 366  008C81   3A28                          DEC      CounterI
 367  008C83   26CA                          JRNE     CycleDrawLine  
 368  008C85   81                            RET      
 369                         ;----------------------
 370                         Label6:   
 371  008C86   B627                          LD       A,Err
 372  008C88   BB26                          ADD      A,EL
 373  008C8A   B727                          LD       Err,A
 374  008C8C   7202002126                    BTJT     IncX,#1,Label9
 375  008C91   B61B                          LD       A,XStart
 376  008C93   BB21                          ADD      A,IncX
 377  008C95   B71B                          LD       XStart,A
 378                         Label9Return:  
 379  008C97   7202002224                    BTJT     IncY,#1,Label10
 380  008C9C   B61C                          LD       A,YStart
 381  008C9E   BB22                          ADD      A,IncY
 382  008CA0   B71C                          LD       YStart,A
 383  008CA2   CC8C6F                        JP       Label6Return
 384                         Label7:   
 385  008CA5   B61B                          LD       A,XStart
 386  008CA7   A001                          SUB      A,#1
 387  008CA9   B71B                          LD       XStart,A
 388  008CAB   CC8C64                        JP       Label7Return
 389                         Label8:   
 390  008CAE   B61C                          LD       A,YStart
 391  008CB0   A001                          SUB      A,#1
 392  008CB2   B71C                          LD       YStart,A
 393  008CB4   CC8C6F                        JP       Label6Return
 394                         Label9:   
 395  008CB7   B61B                          LD       A,XStart
 396  008CB9   A001                          SUB      A,#1
 397  008CBB   B71B                          LD       XStart,A
 398  008CBD   CC8C97                        JP       Label9Return
 399                         Label10:  
 400  008CC0   B61C                          LD       A,YStart
 401  008CC2   A001                          SUB      A,#1
 402  008CC4   B71C                          LD       YStart,A
 403  008CC6   CC8C6F                        JP       Label6Return
 404                         ;=============================================================
                               ;=======================
 405  008CC9                       DrawSymbol  MACRO    X1,Y1,S1,SCLX,SCLY,Red,Green,Blue
 406                                   MOV      XStart,X1
 407                                   MOV      YStart,Y1
 408                                   MOV      Symbol,S1
 409                                   MOV      ScaleX,SCLX
 410                                   MOV      ScaleY,SCLY
 411                                   MOV      Temp4,Red
 412                                   MOV      Temp5,Green
 413                                   MOV      Temp6,Blue
STMicroelectronics list file postprocessor v1.01   (C)2009-2014   Sun Jul 06 23:27:10 2014
Page 38  Assembler
                                               e:\stm_project\stm8s105c6t6\assembler\project_2\general.asm

 414                                   call     lDrawSymbol
 415  008CC9                                 MEND     
 416                         lDrawSymbol:  
 417  008CC9   5F                            CLRW     X
 418  008CCA   D6817B                        LD       A,(Font6x8,X)
 419  008CCD   88                            PUSH     A
 420  008CCE   B63B                          LD       A,ScaleX
 421  008CD0   97                            LD       XL,A
 422  008CD1   84                            POP      A
 423  008CD2   42                            MUL      X,A
 424  008CD3   9F                            LD       A,XL
 425  008CD4   4A                            DEC      A
 426  008CD5   B73D                          LD       WidthS,A
 427                                   
 428  008CD7   AE0001                        LDW      X,#1
 429  008CDA   D6817B                        LD       A,(Font6x8,X)
 430  008CDD   88                            PUSH     A
 431  008CDE   B63C                          LD       A,ScaleY
 432  008CE0   97                            LD       XL,A
 433  008CE1   84                            POP      A
 434  008CE2   42                            MUL      X,A
 435  008CE3   9F                            LD       A,XL
 436  008CE4   4A                            DEC      A
 437  008CE5   B73E                          LD       HeightS,A
 438                                   
 439                                   SendToLCD #$002A        
 439  008CE7   AE002A                        LDW      X,#$002A
 439  008CEA   CD896E                        call     lSendToLCD
 440  008CED   AE0100                        LDW      X,#$0100
 441  008CF0   B61C                          LD       A,YStart
 442  008CF2   97                            LD       XL,A
 443  008CF3   CD896E                        call     lSendToLCD
 444  008CF6   AE0100                        LDW      X,#$0100
 445  008CF9   B61C                          LD       A,YStart      
 446  008CFB   BB3E                          ADD      A,HeightS
 447  008CFD   97                            LD       XL,A
 448  008CFE   CD896E                        call     lSendToLCD
 449                                   SendToLCD #$002B
 449  008D01   AE002B                        LDW      X,#$002B
 449  008D04   CD896E                        call     lSendToLCD
 450  008D07   AE0100                        LDW      X,#$0100
 451  008D0A   B61B                          LD       A,XStart
 452  008D0C   97                            LD       XL,A
 453  008D0D   CD896E                        call     lSendToLCD
 454  008D10   AE0100                        LDW      X,#$0100
 455  008D13   B61B                          LD       A,XStart
 456  008D15   BB3D                          ADD      A,WidthS
 457  008D17   97                            LD       XL,A
 458  008D18   CD896E                        call     lSendToLCD 
 459                                                          ;Convert color mode
 460  008D1B   905F                          CLRW     Y
 461  008D1D   5F                            CLRW     X
 462  008D1E   B604                          LD       A,Temp4
 463  008D20   A4F8                          AND      A,#%11111000
 464  008D22   9095                          LD       YH,A
 465  008D24   B605                          LD       A,Temp5
 466  008D26   A4FC                          AND      A,#%11111100
STMicroelectronics list file postprocessor v1.01   (C)2009-2014   Sun Jul 06 23:27:10 2014
Page 39  Assembler
                                               e:\stm_project\stm8s105c6t6\assembler\project_2\general.asm

 467  008D28   97                            LD       XL,A
 468  008D29   A604                          LD       A,#$04
 469  008D2B   42                            MUL      X,A
 470  008D2C   58                            SLLW     X
 471  008D2D   B606                          LD       A,Temp6
 472  008D2F   44                            SRL      A
 473  008D30   44                            SRL      A
 474  008D31   44                            SRL      A
 475  008D32   B706                          LD       Temp6,A
 476  008D34   9F                            LD       A,XL
 477  008D35   BB06                          ADD      A,Temp6
 478  008D37   97                            LD       XL,A
 479  008D38   909E                          LD       A,YH
 480  008D3A   B704                          LD       Temp4,A
 481  008D3C   9E                            LD       A,XH
 482  008D3D   BB04                          ADD      A,Temp4
 483  008D3F   B704                          LD       Temp4,A
 484  008D41   9F                            LD       A,XL
 485  008D42   B705                          LD       Temp5,A
 486                                   SendToLCD #$002C
 486  008D44   AE002C                        LDW      X,#$002C
 486  008D47   CD896E                        call     lSendToLCD
 487  008D4A   35FF0041                      MOV      CycleI,#255
 488                         CyclingI:  
 489  008D4E   3C41                          INC      CycleI
 490  008D50   35FF0042                      MOV      CycleJ,#255
 491                         CyclingJ:  
 492  008D54   3C42                          INC      CycleJ
 493                                                          ;-------------
 494  008D56   5F                            CLRW     X
 495  008D57   B642                          LD       A,CycleJ
 496  008D59   97                            LD       XL,A
 497  008D5A   B63C                          LD       A,ScaleY
 498  008D5C   62                            DIV      X,A
 499  008D5D   9F                            LD       A,XL
 500  008D5E   B73F                          LD       Position,A
 501  008D60   AE0000                        LDW      X,#$0
 502  008D63   D6817B                        LD       A,(Font6x8,X)
 503  008D66   97                            LD       XL,A
 504  008D67   B63A                          LD       A,Symbol
 505  008D69   42                            MUL      X,A
 506  008D6A   1C0002                        ADDW     X,#$02
 507  008D6D   3F11                          CLR      Temp15
 508  008D6F   B641                          LD       A,CycleI
 509  008D71   9097                          LD       YL,A
 510  008D73   B63B                          LD       A,ScaleX
 511  008D75   9062                          DIV      Y,A
 512  008D77   909F                          LD       A,YL
 513  008D79   B712                          LD       Temp16,A      
 514  008D7B   72BB0011                      ADDW     X,{Temp16-1}
 515  008D7F   D6817B                        LD       A,(Font6x8,X)
 516  008D82   B740                          LD       Column,A
 517                                   SetBit   Temp17,Position
 517  008D84   B63F                          LD       A,Position
 517  008D86   CD8958                        call     lSetBit
 517  008D89   450D13                        MOV      Temp17,Posit
 518  008D8C   B613                          LD       A,Temp17
STMicroelectronics list file postprocessor v1.01   (C)2009-2014   Sun Jul 06 23:27:10 2014
Page 40  Assembler
                                               e:\stm_project\stm8s105c6t6\assembler\project_2\general.asm

 519  008D8E   B440                          AND      A,Column
 520  008D90   A100                          CP       A,#0
 521  008D92   271F                          JREQ     DrawBackground
 522  008D94   AE0100                        LDW      X,#$0100
 523  008D97   B604                          LD       A,Temp4
 524  008D99   97                            LD       XL,A
 525  008D9A   CD896E                        call     lSendToLCD
 526  008D9D   AE0100                        LDW      X,#$0100
 527  008DA0   B605                          LD       A,Temp5
 528  008DA2   97                            LD       XL,A
 529  008DA3   CD896E                        call     lSendToLCD
 530                         ReturnDrawBackground:  
 531                                                          ;-------------
 532  008DA6   B642                          LD       A,CycleJ
 533  008DA8   B13E                          CP       A,HeightS
 534  008DAA   26A8                          JRNE     CyclingJ
 535                                                          ;-------------
 536  008DAC   B641                          LD       A,CycleI
 537  008DAE   B13D                          CP       A,WidthS
 538  008DB0   269C                          JRNE     CyclingI
 539  008DB2   81                            RET      
 540                         DrawBackground:  
 541  008DB3   AE0100                        LDW      X,#$0100
 542  008DB6   CD896E                        call     lSendToLCD
 543  008DB9   AE0100                        LDW      X,#$0100
 544  008DBC   CD896E                        call     lSendToLCD
 545  008DBF   CC8DA6                        JP       ReturnDrawBackground
 546                         ;=============================================================
                               ;=======================
 547  008DC2                       DrawText  MACRO    X1,Y1,Text,SX,SY,Red,Green,Blue
 548                                   LOCAL    Skip
 549                                   LOCAL    TextArray
 550                                   JP       Skip
 551                         TextArray:  
 552                                   STRING   Text,$01
 553                         Skip:     
 554                                   MOV      XT,X1
 555                                   MOV      YT,Y1
 556                                   MOV      ScaleX,SX
 557                                   MOV      ScaleY,SY
 558                                   MOV      RT,Red
 559                                   MOV      GT,Green
 560                                   MOV      BT,Blue
 561                                   LDW      Y,#TextArray
 562                                   call     lDrawText     
 563  008DC2                                 MEND     
 564                         lDrawText:  
 565  008DC2   5F                            CLRW     X
 566  008DC3   D6817B                        LD       A,(Font6x8,X)
 567  008DC6   88                            PUSH     A
 568  008DC7   B63B                          LD       A,ScaleX
 569  008DC9   97                            LD       XL,A
 570  008DCA   84                            POP      A
 571  008DCB   42                            MUL      X,A
 572  008DCC   9F                            LD       A,XL
 573  008DCD   B745                          LD       Var3,A
 574  008DCF   35FF004B                      MOV      Var5,#$FF
STMicroelectronics list file postprocessor v1.01   (C)2009-2014   Sun Jul 06 23:27:10 2014
Page 41  Assembler
                                               e:\stm_project\stm8s105c6t6\assembler\project_2\general.asm

 575  008DD3   3F4D                          CLR      Shift
 576                         CycleS:   
 577  008DD5   3C4B                          INC      Var5
 578  008DD7   9089                          PUSHW    Y
 579  008DD9   72B9004A                      ADDW     Y,{Var5-1}
 580  008DDD   72B9004C                      ADDW     Y,{Shift-1}
 581  008DE1   90F6                          LD       A,(Y)
 582  008DE3   A101                          CP       A,#$01
 583  008DE5   2603                          JRNE     DrawingSymbol
 584  008DE7   9085                          POPW     Y
 585  008DE9   81                            RET      
 586                                                          ;------------
 587                         DrawingSymbol:  
 588  008DEA   A12F                          CP       A,#'/'
 589  008DEC   261F                          JRNE     DrawingSymbol2
 590  008DEE   88                            PUSH     A
 591  008DEF   93                            LDW      X,Y
 592  008DF0   1C0001                        ADDW     X,#$0001
 593  008DF3   F6                            LD       A,(X)
 594  008DF4   A163                          CP       A,#'c'
 595  008DF6   2608                          JRNE     NextCheck
 596  008DF8   84                            POP      A
 597  008DF9   3C4D                          INC      Shift
 598  008DFB   A62C                          LD       A,#','
 599  008DFD   CC8E0D                        JP       DrawingSymbol2
 600                         NextCheck:  
 601  008E00   A173                          CP       A,#'s'
 602  008E02   2608                          JRNE     PreDrawingSymbol2
 603  008E04   84                            POP      A
 604  008E05   3C4D                          INC      Shift
 605  008E07   A620                          LD       A,#$20
 606  008E09   CC8E0D                        JP       DrawingSymbol2
 607                         PreDrawingSymbol2:  
 608  008E0C   84                            POP      A
 609                                                          ;------------
 610                         DrawingSymbol2:  
 611  008E0D   88                            PUSH     A
 612  008E0E   B645                          LD       A,Var3
 613  008E10   BE4A                          LDW      X,{Var5-1}
 614  008E12   42                            MUL      X,A
 615  008E13   9F                            LD       A,XL
 616  008E14   BB43                          ADD      A,XT
 617  008E16   B746                          LD       Var4,A
 618  008E18   84                            POP      A
 619  008E19   B74A                          LD       {Var5-1},A
 620  008E1B   88                            PUSH     A
 621                                   DrawSymbol Var4,YT,{Var5-1},ScaleX,ScaleY,RT,GT,BT
 621  008E1C   45461B                        MOV      XStart,Var4
 621  008E1F   45441C                        MOV      YStart,YT
 621  008E22   454A3A                        MOV      Symbol,{Var5-1}
 621  008E25   453B3B                        MOV      ScaleX,ScaleX
 621  008E28   453C3C                        MOV      ScaleY,ScaleY
 621  008E2B   454704                        MOV      Temp4,RT
 621  008E2E   454805                        MOV      Temp5,GT
 621  008E31   454906                        MOV      Temp6,BT
 621  008E34   CD8CC9                        call     lDrawSymbol
 622  008E37   3F4A                          CLR      {Var5-1}
STMicroelectronics list file postprocessor v1.01   (C)2009-2014   Sun Jul 06 23:27:10 2014
Page 42  Assembler
                                               e:\stm_project\stm8s105c6t6\assembler\project_2\general.asm

 623  008E39   84                            POP      A
 624                                                          ;------------
 625  008E3A   9085                          POPW     Y
 626  008E3C   CC8DD5                        JP       CycleS
 627  008E3F   81                            RET      
 628                         ;=============================================================
                               ;=======================
 629                         InitLCD:  
 630                                                          ;SIM
 631                                                          ;Hardware reset
 632                                   SendToLCD #$0001
 632  008E40   AE0001                        LDW      X,#$0001
 632  008E43   CD896E                        call     lSendToLCD
 633  008E46                                 DelayUs  #$FF
 633  008E46   35FF000E                      MOV      DelayCycle,#$FF
 633  008E4A   CD8969                        call     Loop
 634  008E4D                                                        ;Booster voltage on
 635                                   SendToLCD #$0003
 635  008E4D   AE0003                        LDW      X,#$0003
 635  008E50   CD896E                        call     lSendToLCD
 636  008E53                                                        ;Sleep out
 637                                   SendToLCD #$0011
 637  008E53   AE0011                        LDW      X,#$0011
 637  008E56   CD896E                        call     lSendToLCD
 638  008E59                                                        ;Normal mode on
 639                                   SendToLCD #$0013
 639  008E59   AE0013                        LDW      X,#$0013
 639  008E5C   CD896E                        call     lSendToLCD
 640  008E5F                                                        ;Display inversion off
 641                                   SendToLCD #$0020
 641  008E5F   AE0020                        LDW      X,#$0020
 641  008E62   CD896E                        call     lSendToLCD
 642  008E65                                                        ;Set Contrast
 643                                   SendToLCD #$0025
 643  008E65   AE0025                        LDW      X,#$0025
 643  008E68   CD896E                        call     lSendToLCD
 644  008E6B                                 SendToLCD #%100111111
 644  008E6B   AE013F                        LDW      X,#%100111111
 644  008E6E   CD896E                        call     lSendToLCD
 645  008E71                                 SendToLCD #$002A        
 645  008E71   AE002A                        LDW      X,#$002A
 645  008E74   CD896E                        call     lSendToLCD
 646  008E77                                 SendToLCD #$0100
 646  008E77   AE0100                        LDW      X,#$0100
 646  008E7A   CD896E                        call     lSendToLCD
 647  008E7D                                 SendToLCD #$0183
 647  008E7D   AE0183                        LDW      X,#$0183
 647  008E80   CD896E                        call     lSendToLCD
 648  008E83                                 SendToLCD #$002B        
 648  008E83   AE002B                        LDW      X,#$002B
 648  008E86   CD896E                        call     lSendToLCD
 649  008E89                                 SendToLCD #$0100
 649  008E89   AE0100                        LDW      X,#$0100
 649  008E8C   CD896E                        call     lSendToLCD
 650  008E8F                                 SendToLCD #$0183
 650  008E8F   AE0183                        LDW      X,#$0183
 650  008E92   CD896E                        call     lSendToLCD
STMicroelectronics list file postprocessor v1.01   (C)2009-2014   Sun Jul 06 23:27:10 2014
Page 43  Assembler
                                               e:\stm_project\stm8s105c6t6\assembler\project_2\general.asm

 651  008E95                                                        ;Interface pixel format
 652                                   SendToLCD #$003A 
 652  008E95   AE003A                        LDW      X,#$003A
 652  008E98   CD896E                        call     lSendToLCD
 653  008E9B                                 SendToLCD #$0105        
 653  008E9B   AE0105                        LDW      X,#$0105
 653  008E9E   CD896E                        call     lSendToLCD
 654  008EA1                                                        ;Memory data access control
 655                                   SendToLCD #$0036
 655  008EA1   AE0036                        LDW      X,#$0036
 655  008EA4   CD896E                        call     lSendToLCD
 656  008EA7                                 SendToLCD #%100100000
 656  008EA7   AE0120                        LDW      X,#%100100000
 656  008EAA   CD896E                        call     lSendToLCD
 657  008EAD                                                        ;Tearing line on
 658                                   SendToLCD #$0035        
 658  008EAD   AE0035                        LDW      X,#$0035
 658  008EB0   CD896E                        call     lSendToLCD
 659  008EB3                                                        ;Display on
 660                                   SendToLCD #$0029        
 660  008EB3   AE0029                        LDW      X,#$0029
 660  008EB6   CD896E                        call     lSendToLCD
 661  008EB9                                                        ;Clear display
 662                                   DrawFillRectangle #1,#1,#130,#130,#$00,#$00,#$00
 662  008EB9   35010001                      MOV      Temp1,#1
 662  008EBD   35010000                      MOV      Temp,#1
 662  008EC1   35820003                      MOV      Temp3,#130
 662  008EC5   35820002                      MOV      Temp2,#130
 662  008EC9   35000004                      MOV      Temp4,#$00
 662  008ECD   35000005                      MOV      Temp5,#$00
 662  008ED1   35000006                      MOV      Temp6,#$00
 662  008ED5   CD8995                        call     lDrawFillRect
 663  008ED8   81                            RET      
 664                         ;=============================================================
                               ;=======================  
<END_OF_INCLUSION>
   0  008ED9                                 #include "AnalogClock.asm"  
   1                         ;=============================================================
                               ;=======================
   2                                   SEGMENT  'ROM'
   3                         ;=============================================================
                               ;=======================
   4                         InitAnalogClock:  
   5                                   DrawFillRectangle #2,#2,#128,#128,#0,#0,#0
   5  008ED9   35020001                      MOV      Temp1,#2
   5  008EDD   35020000                      MOV      Temp,#2
   5  008EE1   35800003                      MOV      Temp3,#128
   5  008EE5   35800002                      MOV      Temp2,#128
   5  008EE9   35000004                      MOV      Temp4,#0
   5  008EED   35000005                      MOV      Temp5,#0
   5  008EF1   35000006                      MOV      Temp6,#0
   5  008EF5   CD8995                        call     lDrawFillRect
   6  008EF8   35F00016                      MOV      Temp20,#240
   7                         DrawTablo1:  
   8                                   ProjectionOnXY #65,#65,#50,Temp20,Temp22,Temp24
   8  008EFC   3541002F                      MOV      XS,#65
   8  008F00   35410030                      MOV      YS,#65
   8  008F04   35320031                      MOV      LengthLine,#50
STMicroelectronics list file postprocessor v1.01   (C)2009-2014   Sun Jul 06 23:27:10 2014
Page 44  Assembler
                                               e:\stm_project\stm8s105c6t6\assembler\project_2\general.asm

   8  008F08   451632                        MOV      Angle,Temp20
   8  008F0B   CD8911                        call     lProjectionXY
   8  008F0E   453318                        MOV      Temp22,XE
   8  008F11   45341A                        MOV      Temp24,YE
   9  008F14                                 DrawPoint Temp22,Temp24,#0,#255,#0
   9  008F14   451800                        MOV      Temp,Temp22
   9  008F17   451A01                        MOV      Temp1,Temp24
   9  008F1A   35000004                      MOV      Temp4,#0
   9  008F1E   35FF0005                      MOV      Temp5,#255
   9  008F22   35000006                      MOV      Temp6,#0
   9  008F26   CD8A22                        call     lDrawPoint
  10  008F29   B616                          LD       A,Temp20
  11  008F2B   A004                          SUB      A,#4
  12  008F2D   B716                          LD       Temp20,A
  13  008F2F   26CB                          JRNE     DrawTablo1
  14  008F31   35F00016                      MOV      Temp20,#240
  15                         DrawTablo:  
  16                                   ProjectionOnXY #65,#65,#50,Temp20,Temp22,Temp24
  16  008F35   3541002F                      MOV      XS,#65
  16  008F39   35410030                      MOV      YS,#65
  16  008F3D   35320031                      MOV      LengthLine,#50
  16  008F41   451632                        MOV      Angle,Temp20
  16  008F44   CD8911                        call     lProjectionXY
  16  008F47   453318                        MOV      Temp22,XE
  16  008F4A   45341A                        MOV      Temp24,YE
  17  008F4D                                 DrawPoint Temp22,Temp24,#255,#255,#255
  17  008F4D   451800                        MOV      Temp,Temp22
  17  008F50   451A01                        MOV      Temp1,Temp24
  17  008F53   35FF0004                      MOV      Temp4,#255
  17  008F57   35FF0005                      MOV      Temp5,#255
  17  008F5B   35FF0006                      MOV      Temp6,#255
  17  008F5F   CD8A22                        call     lDrawPoint
  18  008F62   B616                          LD       A,Temp20
  19  008F64   A014                          SUB      A,#20
  20  008F66   B716                          LD       Temp20,A
  21  008F68   26CB                          JRNE     DrawTablo
  22  008F6A   35F00016                      MOV      Temp20,#240
  23                         DrawTablo2:  
  24                                   ProjectionOnXY #65,#65,#51,Temp20,Temp22,Temp24
  24  008F6E   3541002F                      MOV      XS,#65
  24  008F72   35410030                      MOV      YS,#65
  24  008F76   35330031                      MOV      LengthLine,#51
  24  008F7A   451632                        MOV      Angle,Temp20
  24  008F7D   CD8911                        call     lProjectionXY
  24  008F80   453318                        MOV      Temp22,XE
  24  008F83   45341A                        MOV      Temp24,YE
  25  008F86                                 DrawPoint Temp22,Temp24,#255,#255,#255
  25  008F86   451800                        MOV      Temp,Temp22
  25  008F89   451A01                        MOV      Temp1,Temp24
  25  008F8C   35FF0004                      MOV      Temp4,#255
  25  008F90   35FF0005                      MOV      Temp5,#255
  25  008F94   35FF0006                      MOV      Temp6,#255
  25  008F98   CD8A22                        call     lDrawPoint
  26  008F9B   B616                          LD       A,Temp20
  27  008F9D   A014                          SUB      A,#20
  28  008F9F   B716                          LD       Temp20,A
  29  008FA1   26CB                          JRNE     DrawTablo2
STMicroelectronics list file postprocessor v1.01   (C)2009-2014   Sun Jul 06 23:27:10 2014
Page 45  Assembler
                                               e:\stm_project\stm8s105c6t6\assembler\project_2\general.asm

  30  008FA3   35F00016                      MOV      Temp20,#240
  31                         DrawTablo3:  
  32                                   ProjectionOnXY #62,#62,#57,Temp20,Temp22,Temp24
  32  008FA7   353E002F                      MOV      XS,#62
  32  008FAB   353E0030                      MOV      YS,#62
  32  008FAF   35390031                      MOV      LengthLine,#57
  32  008FB3   451632                        MOV      Angle,Temp20
  32  008FB6   CD8911                        call     lProjectionXY
  32  008FB9   453318                        MOV      Temp22,XE
  32  008FBC   45341A                        MOV      Temp24,YE
  33  008FBF                                 DrawSymbol Temp22,Temp24,#$09,#1,#1,#255,#255,#255
  33  008FBF   45181B                        MOV      XStart,Temp22
  33  008FC2   451A1C                        MOV      YStart,Temp24
  33  008FC5   3509003A                      MOV      Symbol,#$09
  33  008FC9   3501003B                      MOV      ScaleX,#1
  33  008FCD   3501003C                      MOV      ScaleY,#1
  33  008FD1   35FF0004                      MOV      Temp4,#255
  33  008FD5   35FF0005                      MOV      Temp5,#255
  33  008FD9   35FF0006                      MOV      Temp6,#255
  33  008FDD   CD8CC9                        call     lDrawSymbol
  34  008FE0   B616                          LD       A,Temp20
  35  008FE2   A014                          SUB      A,#20
  36  008FE4   B716                          LD       Temp20,A
  37  008FE6   26BF                          JRNE     DrawTablo3
  38  008FE8   3F18                          CLR      Temp22
  39  008FEA   3F1A                          CLR      Temp24
  40  008FEC   35420018                      MOV      Temp22,#66
  41  008FF0   45181A                        MOV      Temp24,Temp22
  42  008FF3   451A37                        MOV      Temp25,Temp24
  43  008FF6   453738                        MOV      Temp26,Temp25
  44  008FF9   35B00016                      MOV      Temp20,#176
  45  008FFD   35B40039                      MOV      Temp27,#180
  46  009001   81                            RET      
  47                         ;=============================================================
                               ;=======================
  48                         RenderClock:  
  49  009002   B650                          LD       A,IsRender
  50  009004   A101                          CP       A,#$01
  51  009006   2701                          JREQ     DoRender
  52  009008   81                            RET      
  53                         DoRender:  
  54                                   DrawLine #65,#65,Temp22,Temp24,#$00,#$00,#$00
  54  009009   3541001B                      MOV      XStart,#65
  54  00900D   3541001C                      MOV      YStart,#65
  54  009011   45181D                        MOV      XEnd,Temp22
  54  009014   451A1E                        MOV      YEnd,Temp24
  54  009017   35000010                      MOV      Temp14,#$00
  54  00901B   35000011                      MOV      Temp15,#$00
  54  00901F   35000012                      MOV      Temp16,#$00
  54  009023   CD8BF6                        call     lDrawLine
  55  009026                                 DrawLine #65,#65,Temp25,Temp26,#$00,#$00,#$00
  55  009026   3541001B                      MOV      XStart,#65
  55  00902A   3541001C                      MOV      YStart,#65
  55  00902E   45371D                        MOV      XEnd,Temp25
  55  009031   45381E                        MOV      YEnd,Temp26
  55  009034   35000010                      MOV      Temp14,#$00
  55  009038   35000011                      MOV      Temp15,#$00
STMicroelectronics list file postprocessor v1.01   (C)2009-2014   Sun Jul 06 23:27:10 2014
Page 46  Assembler
                                               e:\stm_project\stm8s105c6t6\assembler\project_2\general.asm

  55  00903C   35000012                      MOV      Temp16,#$00
  55  009040   CD8BF6                        call     lDrawLine
  56  009043                                 DrawText #41,#85,"EdOS",#2,#2,#60,#60,LvlLed
  56  009043   CC904B                        JP       LOC0
  56                         LOC1:     
  56  009046   45644F5301                    STRING   "EdOS",$01
  56                         LOC0:     
  56  00904B   35290043                      MOV      XT,#41
  56  00904F   35550044                      MOV      YT,#85
  56  009053   3502003B                      MOV      ScaleX,#2
  56  009057   3502003C                      MOV      ScaleY,#2
  56  00905B   353C0047                      MOV      RT,#60
  56  00905F   353C0048                      MOV      GT,#60
  56  009063   454F49                        MOV      BT,LvlLed
  56  009066   90AE9046                      LDW      Y,#LOC1
  56  00906A   CD8DC2                        call     lDrawText     
  57  00906D                                 ProjectionOnXY #65,#65,#40,Temp20,Temp22,Temp24
  57  00906D   3541002F                      MOV      XS,#65
  57  009071   35410030                      MOV      YS,#65
  57  009075   35280031                      MOV      LengthLine,#40
  57  009079   451632                        MOV      Angle,Temp20
  57  00907C   CD8911                        call     lProjectionXY
  57  00907F   453318                        MOV      Temp22,XE
  57  009082   45341A                        MOV      Temp24,YE
  58  009085                                 ProjectionOnXY #65,#65,#45,Temp27,Temp25,Temp26
  58  009085   3541002F                      MOV      XS,#65
  58  009089   35410030                      MOV      YS,#65
  58  00908D   352D0031                      MOV      LengthLine,#45
  58  009091   453932                        MOV      Angle,Temp27
  58  009094   CD8911                        call     lProjectionXY
  58  009097   453337                        MOV      Temp25,XE
  58  00909A   453438                        MOV      Temp26,YE
  59  00909D                                 
  60                                   DrawLine #65,#65,Temp22,Temp24,#$DC,#$14,#$3C
  60  00909D   3541001B                      MOV      XStart,#65
  60  0090A1   3541001C                      MOV      YStart,#65
  60  0090A5   45181D                        MOV      XEnd,Temp22
  60  0090A8   451A1E                        MOV      YEnd,Temp24
  60  0090AB   35DC0010                      MOV      Temp14,#$DC
  60  0090AF   35140011                      MOV      Temp15,#$14
  60  0090B3   353C0012                      MOV      Temp16,#$3C
  60  0090B7   CD8BF6                        call     lDrawLine
  61  0090BA                                 DrawLine #65,#65,Temp25,Temp26,#0,#255,#0
  61  0090BA   3541001B                      MOV      XStart,#65
  61  0090BE   3541001C                      MOV      YStart,#65
  61  0090C2   45371D                        MOV      XEnd,Temp25
  61  0090C5   45381E                        MOV      YEnd,Temp26
  61  0090C8   35000010                      MOV      Temp14,#0
  61  0090CC   35FF0011                      MOV      Temp15,#255
  61  0090D0   35000012                      MOV      Temp16,#0
  61  0090D4   CD8BF6                        call     lDrawLine
  62  0090D7                                 DrawPoint Temp22,Temp24,#255,#255,#255
  62  0090D7   451800                        MOV      Temp,Temp22
  62  0090DA   451A01                        MOV      Temp1,Temp24
  62  0090DD   35FF0004                      MOV      Temp4,#255
  62  0090E1   35FF0005                      MOV      Temp5,#255
  62  0090E5   35FF0006                      MOV      Temp6,#255
STMicroelectronics list file postprocessor v1.01   (C)2009-2014   Sun Jul 06 23:27:10 2014
Page 47  Assembler
                                               e:\stm_project\stm8s105c6t6\assembler\project_2\general.asm

  62  0090E9   CD8A22                        call     lDrawPoint
  63  0090EC                                 DrawPoint Temp25,Temp26,#255,#255,#255
  63  0090EC   453700                        MOV      Temp,Temp25
  63  0090EF   453801                        MOV      Temp1,Temp26
  63  0090F2   35FF0004                      MOV      Temp4,#255
  63  0090F6   35FF0005                      MOV      Temp5,#255
  63  0090FA   35FF0006                      MOV      Temp6,#255
  63  0090FE   CD8A22                        call     lDrawPoint
  64  009101                                 DrawFillRectangle #63,#63,#5,#5,#255,#0,#0
  64  009101   353F0001                      MOV      Temp1,#63
  64  009105   353F0000                      MOV      Temp,#63
  64  009109   35050003                      MOV      Temp3,#5
  64  00910D   35050002                      MOV      Temp2,#5
  64  009111   35FF0004                      MOV      Temp4,#255
  64  009115   35000005                      MOV      Temp5,#0
  64  009119   35000006                      MOV      Temp6,#0
  64  00911D   CD8995                        call     lDrawFillRect
  65  009120   3F50                          CLR      IsRender
  66  009122   81                            RET      
  67                         ;=============================================================
                               ;=======================
  68                         UpdateRTC:  
  69  009123   B639                          LD       A,Temp27
  70  009125   AB04                          ADD      A,#4
  71  009127   B739                          LD       Temp27,A
  72  009129   A1B4                          CP       A,#180
  73  00912B   260C                          JRNE     SkipReset
  74  00912D   B616                          LD       A,Temp20
  75  00912F   AB04                          ADD      A,#4
  76  009131   B716                          LD       Temp20,A
  77  009133   A1F0                          CP       A,#240
  78  009135   2602                          JRNE     SkipReset
  79  009137   3F16                          CLR      Temp20
  80                         SkipReset:  
  81  009139   A1F0                          CP       A,#240
  82  00913B   2602                          JRNE     Skipper
  83  00913D   3F39                          CLR      Temp27
  84                         Skipper:  
  85  00913F   81                            RET      
  86                         ;=============================================================
                               ;=======================
  87                         UpdateRenderFlag:  
  88  009140   35010050                      MOV      IsRender,#$01
  89  009144   81                            RET      
  90                         ;=============================================================
                               ;=======================
<END_OF_INCLUSION>
   8                                   
   9                         ;=============================================================
                               ;=========
  10                                   SEGMENT  'INTERRUPT'
  11  008000   AC008081                      JPF      InitMemory    ; $8000    RESET Reset
  12  008004   AC008080                      JPF      NoneInterrupt  ; $8004    TRAP  Software 
                                                                ;interrupt
  13  008008   AC008080                      JPF      NoneInterrupt  ; $8008 0  TLI   External top 
                                                                ;level interrupt
  14  00800C   AC008080                      JPF      NoneInterrupt  ; $800C 1  AWU   Auto wake up 
                                                                ;from HALT
STMicroelectronics list file postprocessor v1.01   (C)2009-2014   Sun Jul 06 23:27:10 2014
Page 48  Assembler
                                               e:\stm_project\stm8s105c6t6\assembler\project_2\general.asm

  15  008010   AC008080                      JPF      NoneInterrupt  ; $8010 2  CLK   Clock 
                                                                ;controller
  16  008014   AC008080                      JPF      NoneInterrupt  ; $8014 3  EXTI0 Port A external
                                                                ; interrupts
  17  008018   AC008080                      JPF      NoneInterrupt  ; $8018 4  EXTI1 Port B external
                                                                ; interrupts
  18  00801C   AC008080                      JPF      NoneInterrupt   ; $801C 5  EXTI2 Port C external
                                                                ; interrupts
  19  008020   AC008080                      JPF      NoneInterrupt  ; $8020 6  EXTI3 Port D external
                                                                ; interrupts
  20  008024   AC008080                      JPF      NoneInterrupt  ; $8024 7  EXTI4 Port E external
                                                                ; interrupts
  21  008028   AC008080                      JPF      NoneInterrupt  ; $8028 8  Reserved
  22  00802C   AC008080                      JPF      NoneInterrupt  ; $802C 9  Reserved
  23  008030   AC008080                      JPF      NoneInterrupt  ; $8030 10 SPI  End of transfer
  24  008034   AC00921C                      JPF      Timer1        ; $8034 11 TIM1 TIM1 update/ 
                                                                ;overflow/ underflow/trigger/ 
                                                                ;break
  25  008038   AC008080                      JPF      NoneInterrupt  ; $8038 12 TIM1 TIM1 capture/ 
                                                                ;compare
  26  00803C   AC009228                      JPF      Timer2        ; $803C 13 TIM2 TIM2 update/ 
                                                                ;overflow
  27  008040   AC008080                      JPF      NoneInterrupt  ; $8040 14 TIM2 TIM2 capture/ 
                                                                ;compare
  28  008044   AC00922D                      JPF      Timer3        ; $8044 15 TIM3 TIM3 update/ 
                                                                ;overflow
  29  008048   AC008080                      JPF      NoneInterrupt  ; $8048 16 TIM3 TIM3 capture/ 
                                                                ;compare
  30  00804C   AC008080                      JPF      NoneInterrupt  ; $8058 20 Reserved
  31  008050   AC008080                      JPF      NoneInterrupt  ; $805C 21 Reserved
  32  008054   AC008080                      JPF      NoneInterrupt  ; $8054 19 I2C interrupt
  33  008058   AC008080                      JPF      NoneInterrupt  ; $804C 17 UART1 Tx complete
  34  00805C   AC008080                      JPF      NoneInterrupt  ; $8050 18 UART1 Receive 
                                                                ;register DATA FULL
  35  008060   AC008080                      JPF      NoneInterrupt  ; $8060 22 ADC1 ADC1 end of 
                                                                ;conversion/ analog watchdog 
                                                                ;interrupt
  36  008064   AC009238                      JPF      Timer4        ; $8064 23 TIM4 TIM4 update/ 
                                                                ;overflow
  37  008068   AC008080                      JPF      NoneInterrupt  ; $8068 24 Flash EOP/WR_PG_DIS
  38  00806C   AC008080                      JPF      NoneInterrupt  ; $806C 25 Reserved
  39  008070   AC008080                      JPF      NoneInterrupt  ; $8070 26 Reserved
  40  008074   AC008080                      JPF      NoneInterrupt  ; $8074 27 Reserved
  41  008078   AC008080                      JPF      NoneInterrupt  ; $8078 28 Reserved
  42  00807C   AC008080                      JPF      NoneInterrupt  ; $807C 29 Reserved
  43                         ;=============================================================
                               ;=========	
  44                                   SEGMENT  'ROM'
  45                         ;***************************
  46                         InitPortsIO.w:                   ;*
  47                         ;==============*6543***    *
  48  009145   35005002                      MOV      DDRA, #%00000000  ;   *
  49  009149   35005003                      MOV      CR1A, #%00000000  ;   *
  50  00914D   35005000                      MOV      PORTA,#%00000000  ;   *
  51                         ;==============76543210    *
  52  009151   350F5007                      MOV      DDRB, #%00001111  ;   *
  53  009155   35EF5008                      MOV      CR1B, #%11101111  ;   *
STMicroelectronics list file postprocessor v1.01   (C)2009-2014   Sun Jul 06 23:27:10 2014
Page 49  Assembler
                                               e:\stm_project\stm8s105c6t6\assembler\project_2\general.asm

  54  009159   35005005                      MOV      PORTB,#%00000000  ;   *
  55                         ;==============7654321*    *
  56  00915D   3570500C                      MOV      DDRC, #%01110000  ;   *
  57  009161   3570500D                      MOV      CR1C, #%01110000  ;   *
  58  009165   3570500E                      MOV      CR2C, #%01110000  ;	*
  59  009169   3500500A                      MOV      PORTC,#%00000000  ;   *
  60                         ;==============765432*0    *
  61  00916D   35115011                      MOV      DDRD, #%00010001  ;   *
  62  009171   35115012                      MOV      CR1D, #%00010001  ;   *
  63  009175   35115013                      MOV      CR2D, #%00010001  ;   *
  64  009179   3500500F                      MOV      PORTD,#%00000000  ;   *
  65                         ;==============765*3210    *
  66  00917D   35205016                      MOV      DDRE, #%00100000  ;   *
  67  009181   35205017                      MOV      CR1E, #%00100000  ;   *
  68  009185   35205014                      MOV      PORTE,#%00100000  ;   *
  69                         ;==============******10    *
  70  009189   35025020                      MOV      DDRG, #%00000010  ;   *
  71  00918D   35025021                      MOV      CR1G, #%00000010  ;   *
  72  009191   35025022                      MOV      CR2G, #%00000010  ;   *
  73  009195   3500501E                      MOV      PORTG,#%00000000  ;   *
  74  009199   81                            RET                    ;   *
  75                         ;***************************
  76                         ;=============================================================
                               ;=======================
  77                         InitTimers.w:  
  78                         ;**TIMER1******************
  79  00919A   35035260                      MOV      TIM1_PSCRH,#3
  80  00919E   35E85261                      MOV      TIM1_PSCRL,#232
  81  0091A2   354E5262                      MOV      TIM1_ARRH, #$4E
  82  0091A6   35205263                      MOV      TIM1_ARRL, #$20
  83  0091AA   35815250                      MOV      TIM1_CR1,  #%10000001
  84  0091AE   35015254                      MOV      TIM1_IER,  #%00000001
  85                         ;**TIMER2******************
  86  0091B2   3501530C                      MOV      TIM2_PSCR, #1
  87  0091B6   35FF530D                      MOV      TIM2_ARRH, #255
  88  0091BA   35FF530E                      MOV      TIM2_ARRL, #255
  89  0091BE   35815300                      MOV      TIM2_CR1,  #%10000001
  90  0091C2   35015301                      MOV      TIM2_IER,  #%00000001
  91                         ;**TIMER3******************
  92  0091C6   3505532A                      MOV      TIM3_PSCR, #5
  93  0091CA   35FF532B                      MOV      TIM3_ARRH, #255
  94  0091CE   35FF532C                      MOV      TIM3_ARRL, #255
  95  0091D2   35815320                      MOV      TIM3_CR1,  #%10000001
  96  0091D6   35015321                      MOV      TIM3_IER,  #%00000001
  97                         ;**TIMER4******************
  98  0091DA   35075345                      MOV      TIM4_PSCR, #7
  99  0091DE   35FF5346                      MOV      TIM4_ARR,  #255
 100  0091E2   35815340                      MOV      TIM4_CR1,  #%10000001
 101  0091E6   35015341                      MOV      TIM4_IER,  #%00000001
 102  0091EA   81                            RET      
 103                         ;=============================================================
                               ;=======================
 104                         InitSystemClock.w:  
 105  0091EB   350150C1                      MOV      CLK_ECKR,#$01 
 106  0091EF   350250C5                      MOV      CLK_SWCR,#$02 
 107  0091F3   35FF50C7                      MOV      CLK_PCKENR1,#$FF
 108                         Looped:   
STMicroelectronics list file postprocessor v1.01   (C)2009-2014   Sun Jul 06 23:27:10 2014
Page 50  Assembler
                                               e:\stm_project\stm8s105c6t6\assembler\project_2\general.asm

 109  0091F7   720350C1FB                    BTJF     CLK_ECKR,#1,Looped 
 110  0091FC   350050C6                      MOV      CLK_CKDIVR,#$00 
 111  009200   35B450C4                      MOV      CLK_SWR,#$B4
 112                         Looped2:  
 113  009204   720750C5FB                    BTJF     CLK_SWCR,#3,Looped2      
 114  009209   81                            RET      
 115                         ;=============================================================
                               ;=======================
 116                         InitSPI.w:  
 117  00920A   35475200                      MOV      SPI_CR1,#%01000111
 118  00920E   35035201                      MOV      SPI_CR2,#%00000011
 119  009212   35005204                      MOV      SPI_DR, #%00000000
 120  009216   81                            RET      
 121                         ;=============================================================
                               ;=======================
 122                         InitBeeper:  
 123  009217   353E50F3                      MOV      BEEP_CSR,#%00111110
 124  00921B   81                            RET      
 125                         ;=============================================================
                               ;=======================
 126                         Timer1.w:  
 127  00921C   72115255                      BRES     TIM1_SR1,#UIF
 128                                                          ;-----------------
 129  009220   CD9123                        call     UpdateRTC
 130  009223   9010500F                      BCPL     PORTD,#0      
 131                                                          ;-----------------
 132  009227   80                            IRET     
 133                         ;=============================================================
                               ;=======================
 134                         Timer2.w:  
 135  009228   72115302                      BRES     TIM2_SR1,#UIF  
 136                                                          ;-----------------
 137                                   
 138                                                          ;-----------------
 139  00922C   80                            IRET     
 140                         ;=============================================================
                               ;=======================
 141                         Timer3.w:  
 142  00922D   72115322                      BRES     TIM3_SR1,#UIF
 143                                                          ;-----------------
 144  009231   CD9140                        call     UpdateRenderFlag
 145  009234   CD8176                        call     UpdateKeyboardFlag
 146                                                          ;-----------------
 147  009237   80                            IRET     
 148                         ;=============================================================
                               ;=======================
 149                         Timer4.w:  
 150  009238   72115342                      BRES     TIM4_SR,#UIF
 151                                                          ;-----------------
 152  00923C   B64F                          LD       A,LvlLed
 153  00923E   43                            CPL      A
 154  00923F   B751                          LD       LvlLed2,A
 155  009241   B64E                          LD       A,Temp71
 156  009243   A101                          CP       A,#1
 157  009245   2705                          JREQ     IncLight
 158  009247   A100                          CP       A,#0
 159  009249   2710                          JREQ     DecLight      
STMicroelectronics list file postprocessor v1.01   (C)2009-2014   Sun Jul 06 23:27:10 2014
Page 51  Assembler
                                               e:\stm_project\stm8s105c6t6\assembler\project_2\general.asm

 160  00924B   80                            IRET     
 161                         IncLight.w:  
 162  00924C   3C4F                          INC      LvlLed
 163  00924E   B64F                          LD       A,LvlLed
 164  009250   A1FF                          CP       A,#255
 165  009252   2701                          JREQ     ClrTemp7
 166  009254   80                            IRET     
 167                         ClrTemp7.w:  
 168  009255   3F4E                          CLR      Temp71
 169  009257   80                            IRET     
 170                         SetTemp7.w:  
 171  009258   3C4E                          INC      Temp71
 172  00925A   80                            IRET     
 173                         DecLight.w:  
 174  00925B   3A4F                          DEC      LvlLed
 175  00925D   B64F                          LD       A,LvlLed
 176  00925F   A101                          CP       A,#1
 177  009261   27F5                          JREQ     SetTemp7
 178                                                          ;-----------------
 179  009263   80                            IRET     
 180                         ;=============================================================
                               ;=======================
 181                         ;=============================================================
                               ;=======================
 182                         SystemStart:  
 183  009264   CD91EB                        call     InitSystemClock
 184  009267   CD9145                        call     InitPortsIO
 185  00926A   CD920A                        call     InitSPI
 186  00926D   CD919A                        call     InitTimers
 187  009270   CD8E40                        call     InitLCD       
 188                                                          ;call InitBeeper
 189                                   DrawRectangle #1,#1,#130,#130,#0,#0,#255  
 189  009273   35010007                      MOV      Temp7,#1
 189  009277   35010008                      MOV      Temp8,#1
 189  00927B   35820009                      MOV      Temp9,#130
 189  00927F   3582000A                      MOV      Temp10,#130
 189  009283   35000010                      MOV      Temp14,#0
 189  009287   35000011                      MOV      Temp15,#0
 189  00928B   35FF0012                      MOV      Temp16,#255
 189  00928F   CD8A88                        call     DrawRect
 190  009292                                                        ;call Delay
 191                                   DrawText #3,#5,"Starting/sSTM8S105C6.",#1,#1,#255,#0,#0
 191  009292   CC92AB                        JP       LOC2
 191                         LOC3:     
 191  009295   5374617274696E67    
 191  00929D   2F7353544D385331              
 191  0092A5   303543362E01                  STRING   "Starting/sSTM8S105C6.",$01
 191                         LOC2:     
 191  0092AB   35030043                      MOV      XT,#3
 191  0092AF   35050044                      MOV      YT,#5
 191  0092B3   3501003B                      MOV      ScaleX,#1
 191  0092B7   3501003C                      MOV      ScaleY,#1
 191  0092BB   35FF0047                      MOV      RT,#255
 191  0092BF   35000048                      MOV      GT,#0
 191  0092C3   35000049                      MOV      BT,#0
 191  0092C7   90AE9295                      LDW      Y,#LOC3
 191  0092CB   CD8DC2                        call     lDrawText     
STMicroelectronics list file postprocessor v1.01   (C)2009-2014   Sun Jul 06 23:27:10 2014
Page 52  Assembler
                                               e:\stm_project\stm8s105c6t6\assembler\project_2\general.asm

 192  0092CE                                                        ;call Delay
 193                                   DrawText #3,#15,"Initialization...",#1,#1,#10,#150,#100
 193  0092CE   CC92E3                        JP       LOC4
 193                         LOC5:     
 193  0092D1   496E697469616C69    
 193  0092D9   7A6174696F6E2E2E              
 193  0092E1   2E01                          STRING   "Initialization...",$01
 193                         LOC4:     
 193  0092E3   35030043                      MOV      XT,#3
 193  0092E7   350F0044                      MOV      YT,#15
 193  0092EB   3501003B                      MOV      ScaleX,#1
 193  0092EF   3501003C                      MOV      ScaleY,#1
 193  0092F3   350A0047                      MOV      RT,#10
 193  0092F7   35960048                      MOV      GT,#150
 193  0092FB   35640049                      MOV      BT,#100
 193  0092FF   90AE92D1                      LDW      Y,#LOC5
 193  009303   CD8DC2                        call     lDrawText     
 194  009306                                                        ;call Delay
 195                                   DrawText #3,#25,"I/O/stest...No/serrors.",#1,#1,#0,#255,#0
 195  009306   CC9321                        JP       LOC6
 195                         LOC7:     
 195  009309   492F4F2F73746573    
 195  009311   742E2E2E4E6F2F73              
 195  009319   6572726F72732E01              STRING   "I/O/stest...No/serrors.",$01
 195                         LOC6:     
 195  009321   35030043                      MOV      XT,#3
 195  009325   35190044                      MOV      YT,#25
 195  009329   3501003B                      MOV      ScaleX,#1
 195  00932D   3501003C                      MOV      ScaleY,#1
 195  009331   35000047                      MOV      RT,#0
 195  009335   35FF0048                      MOV      GT,#255
 195  009339   35000049                      MOV      BT,#0
 195  00933D   90AE9309                      LDW      Y,#LOC7
 195  009341   CD8DC2                        call     lDrawText     
 196  009344                                                        ;call Delay
 197                                   DrawText #3,#35,"Checked/sRAM...",#1,#1,#200,#100,#50
 197  009344   CC9357                        JP       LOC8
 197                         LOC9:     
 197  009347   436865636B65642F    
 197  00934F   7352414D2E2E2E01              STRING   "Checked/sRAM...",$01
 197                         LOC8:     
 197  009357   35030043                      MOV      XT,#3
 197  00935B   35230044                      MOV      YT,#35
 197  00935F   3501003B                      MOV      ScaleX,#1
 197  009363   3501003C                      MOV      ScaleY,#1
 197  009367   35C80047                      MOV      RT,#200
 197  00936B   35640048                      MOV      GT,#100
 197  00936F   35320049                      MOV      BT,#50
 197  009373   90AE9347                      LDW      Y,#LOC9
 197  009377   CD8DC2                        call     lDrawText     
 198  00937A                                                        ;call Delay
 199                                   DrawText #3,#45,"RAM/serrors=0.",#1,#1,#200,#100,#50
 199  00937A   CC938C                        JP       LOCa
 199                         LOCb:     
 199  00937D   52414D2F73657272    
 199  009385   6F72733D302E01                STRING   "RAM/serrors=0.",$01
 199                         LOCa:     
STMicroelectronics list file postprocessor v1.01   (C)2009-2014   Sun Jul 06 23:27:10 2014
Page 53  Assembler
                                               e:\stm_project\stm8s105c6t6\assembler\project_2\general.asm

 199  00938C   35030043                      MOV      XT,#3
 199  009390   352D0044                      MOV      YT,#45
 199  009394   3501003B                      MOV      ScaleX,#1
 199  009398   3501003C                      MOV      ScaleY,#1
 199  00939C   35C80047                      MOV      RT,#200
 199  0093A0   35640048                      MOV      GT,#100
 199  0093A4   35320049                      MOV      BT,#50
 199  0093A8   90AE937D                      LDW      Y,#LOCb
 199  0093AC   CD8DC2                        call     lDrawText     
 200  0093AF                                                        ;call Delay
 201                                   DrawText #3,#55,"Launched/sclock...",#1,#1,#200,#200,#50
 201  0093AF   CC93C5                        JP       LOCc
 201                         LOCd:     
 201  0093B2   4C61756E63686564    
 201  0093BA   2F73636C6F636B2E              
 201  0093C2   2E2E01                        STRING   "Launched/sclock...",$01
 201                         LOCc:     
 201  0093C5   35030043                      MOV      XT,#3
 201  0093C9   35370044                      MOV      YT,#55
 201  0093CD   3501003B                      MOV      ScaleX,#1
 201  0093D1   3501003C                      MOV      ScaleY,#1
 201  0093D5   35C80047                      MOV      RT,#200
 201  0093D9   35C80048                      MOV      GT,#200
 201  0093DD   35320049                      MOV      BT,#50
 201  0093E1   90AE93B2                      LDW      Y,#LOCd
 201  0093E5   CD8DC2                        call     lDrawText     
 202  0093E8                                                        ;call Delay
 203  0093E8   CD8ED9                        call     InitAnalogClock
 204                                                          ;MOV BEEP_CSR,#%10100000	
 205  0093EB   9A                            RIM      
 206                         Main:     
 207                                                          ;call UpdateKeyboard
 208  0093EC   CD9002                        call     RenderClock   
 209  0093EF   8F                            WFI      
 210  0093F0   CC93EC                        JP       Main
 211                         IncSymbol:  
 212  0093F3   3CFF                          INC      $00FF
 213  0093F5   CC93EE                        JP       {Main+2}
 214                         ;=============================================================
                               ;=======================
 215                         OnDownButton1:  
 216                                   DrawSymbol #6,#110,#$31,#2,#2,#255,#255,#0
 216  0093F8   3506001B                      MOV      XStart,#6
 216  0093FC   356E001C                      MOV      YStart,#110
 216  009400   3531003A                      MOV      Symbol,#$31
 216  009404   3502003B                      MOV      ScaleX,#2
 216  009408   3502003C                      MOV      ScaleY,#2
 216  00940C   35FF0004                      MOV      Temp4,#255
 216  009410   35FF0005                      MOV      Temp5,#255
 216  009414   35000006                      MOV      Temp6,#0
 216  009418   CD8CC9                        call     lDrawSymbol
 217  00941B                                 DrawSymbol #6,#110,#$30,#2,#2,#255,#255,#0
 217  00941B   3506001B                      MOV      XStart,#6
 217  00941F   356E001C                      MOV      YStart,#110
 217  009423   3530003A                      MOV      Symbol,#$30
 217  009427   3502003B                      MOV      ScaleX,#2
 217  00942B   3502003C                      MOV      ScaleY,#2
STMicroelectronics list file postprocessor v1.01   (C)2009-2014   Sun Jul 06 23:27:10 2014
Page 54  Assembler
                                               e:\stm_project\stm8s105c6t6\assembler\project_2\general.asm

 217  00942F   35FF0004                      MOV      Temp4,#255
 217  009433   35FF0005                      MOV      Temp5,#255
 217  009437   35000006                      MOV      Temp6,#0
 217  00943B   CD8CC9                        call     lDrawSymbol
 218  00943E   81                            RET      
 219                         OnDownButton2:  
 220                                   DrawSymbol #6,#110,#$32,#2,#2,#255,#255,#0
 220  00943F   3506001B                      MOV      XStart,#6
 220  009443   356E001C                      MOV      YStart,#110
 220  009447   3532003A                      MOV      Symbol,#$32
 220  00944B   3502003B                      MOV      ScaleX,#2
 220  00944F   3502003C                      MOV      ScaleY,#2
 220  009453   35FF0004                      MOV      Temp4,#255
 220  009457   35FF0005                      MOV      Temp5,#255
 220  00945B   35000006                      MOV      Temp6,#0
 220  00945F   CD8CC9                        call     lDrawSymbol
 221  009462   81                            RET      
 222                         OnDownButton3:  
 223                                   DrawSymbol #6,#110,#$33,#2,#2,#255,#255,#0
 223  009463   3506001B                      MOV      XStart,#6
 223  009467   356E001C                      MOV      YStart,#110
 223  00946B   3533003A                      MOV      Symbol,#$33
 223  00946F   3502003B                      MOV      ScaleX,#2
 223  009473   3502003C                      MOV      ScaleY,#2
 223  009477   35FF0004                      MOV      Temp4,#255
 223  00947B   35FF0005                      MOV      Temp5,#255
 223  00947F   35000006                      MOV      Temp6,#0
 223  009483   CD8CC9                        call     lDrawSymbol
 224  009486   81                            RET      
 225                         ;=============================================================
                               ;=======================
 226  009487                                 END      
STMicroelectronics list file postprocessor v1.01   (C)2009-2014   Sun Jul 06 23:27:10 2014
Page 55  Assembler
                                               e:\stm_project\stm8s105c6t6\assembler\project_2\general.asm

Symbol Name                       Value     Call       Type  Scope      Rel.  Line  Privacy  Segment   Size  Bytes File

AWU_CSR1                              50F0         no  WORD  Internal   ABS    100  private  undef        0     0  e:\stm_project\stm8s105c6t6\assembler\project_2\stm8s105c6.asm
AWU_APR                               50F1         no  WORD  Internal   ABS    101  private  undef        0     0  e:\stm_project\stm8s105c6t6\assembler\project_2\stm8s105c6.asm
AWU_TBR                               50F2         no  WORD  Internal   ABS    102  private  undef        0     0  e:\stm_project\stm8s105c6t6\assembler\project_2\stm8s105c6.asm
ADC_CSR                               5400         no  WORD  Internal   ABS    188  private  undef        0     0  e:\stm_project\stm8s105c6t6\assembler\project_2\stm8s105c6.asm
ADC_CR1                               5401         no  WORD  Internal   ABS    189  private  undef        0     0  e:\stm_project\stm8s105c6t6\assembler\project_2\stm8s105c6.asm
ADC_CR2                               5402         no  WORD  Internal   ABS    190  private  undef        0     0  e:\stm_project\stm8s105c6t6\assembler\project_2\stm8s105c6.asm
ADC_CR3                               5403         no  WORD  Internal   ABS    191  private  undef        0     0  e:\stm_project\stm8s105c6t6\assembler\project_2\stm8s105c6.asm
ADC_DRH                               5404         no  WORD  Internal   ABS    192  private  undef        0     0  e:\stm_project\stm8s105c6t6\assembler\project_2\stm8s105c6.asm
ADC_DRL                               5405         no  WORD  Internal   ABS    193  private  undef        0     0  e:\stm_project\stm8s105c6t6\assembler\project_2\stm8s105c6.asm
ADC_TDRH                              5406         no  WORD  Internal   ABS    194  private  undef        0     0  e:\stm_project\stm8s105c6t6\assembler\project_2\stm8s105c6.asm
ADC_TDRL                              5407         no  WORD  Internal   ABS    195  private  undef        0     0  e:\stm_project\stm8s105c6t6\assembler\project_2\stm8s105c6.asm
ADC_HTRH                              5408         no  WORD  Internal   ABS    196  private  undef        0     0  e:\stm_project\stm8s105c6t6\assembler\project_2\stm8s105c6.asm
ADC_HTRL                              5409         no  WORD  Internal   ABS    197  private  undef        0     0  e:\stm_project\stm8s105c6t6\assembler\project_2\stm8s105c6.asm
ADC_LTRH                              540A         no  WORD  Internal   ABS    198  private  undef        0     0  e:\stm_project\stm8s105c6t6\assembler\project_2\stm8s105c6.asm
ADC_LTRL                              540B         no  WORD  Internal   ABS    199  private  undef        0     0  e:\stm_project\stm8s105c6t6\assembler\project_2\stm8s105c6.asm
ADC_AWSRH                             540C         no  WORD  Internal   ABS    200  private  undef        0     0  e:\stm_project\stm8s105c6t6\assembler\project_2\stm8s105c6.asm
ADC_AWSRL                             540D         no  WORD  Internal   ABS    201  private  undef        0     0  e:\stm_project\stm8s105c6t6\assembler\project_2\stm8s105c6.asm
ADC_AWCRH                             540E         no  WORD  Internal   ABS    202  private  undef        0     0  e:\stm_project\stm8s105c6t6\assembler\project_2\stm8s105c6.asm
ADC_AWCRL                             540F         no  WORD  Internal   ABS    203  private  undef        0     0  e:\stm_project\stm8s105c6t6\assembler\project_2\stm8s105c6.asm
ACC                                   7F00         no  WORD  Internal   ABS    221  private  undef        0     0  e:\stm_project\stm8s105c6t6\assembler\project_2\stm8s105c6.asm
Alpha                                 0029         no  WORD  Internal   ABS     45  private  text         0     0  e:\stm_project\stm8s105c6t6\assembler\project_2\ramvars.asm
Arg2L                                 002D         no  WORD  Internal   ABS     50  private  text         0     0  e:\stm_project\stm8s105c6t6\assembler\project_2\ramvars.asm
Arg2H                                 002E         no  WORD  Internal   ABS     51  private  text         0     0  e:\stm_project\stm8s105c6t6\assembler\project_2\ramvars.asm
Angle                                 0032         no  WORD  Internal   ABS     57  private  text         0     0  e:\stm_project\stm8s105c6t6\assembler\project_2\ramvars.asm

BEEP_CSR                              50F3         no  WORD  Internal   ABS    103  private  undef        0     0  e:\stm_project\stm8s105c6t6\assembler\project_2\stm8s105c6.asm
BT                                    0049         no  WORD  Internal   ABS     84  private  text         0     0  e:\stm_project\stm8s105c6t6\assembler\project_2\ramvars.asm
BufLine1                              005B         no  WORD  Internal   ABS    105  private  text         0     0  e:\stm_project\stm8s105c6t6\assembler\project_2\ramvars.asm
BufLine2                              005C         no  WORD  Internal   ABS    106  private  text         0     0  e:\stm_project\stm8s105c6t6\assembler\project_2\ramvars.asm
BufLine3                              005D         no  WORD  Internal   ABS    107  private  text         0     0  e:\stm_project\stm8s105c6t6\assembler\project_2\ramvars.asm
BufLine4                              005E         no  WORD  Internal   ABS    108  private  text         0     0  e:\stm_project\stm8s105c6t6\assembler\project_2\ramvars.asm

CR1A                                  5003         no  WORD  Internal   ABS     14  private  undef        0     0  e:\stm_project\stm8s105c6t6\assembler\project_2\stm8s105c6.asm
CR2A                                  5004         no  WORD  Internal   ABS     15  private  undef        0     0  e:\stm_project\stm8s105c6t6\assembler\project_2\stm8s105c6.asm
CR1B                                  5008         no  WORD  Internal   ABS     20  private  undef        0     0  e:\stm_project\stm8s105c6t6\assembler\project_2\stm8s105c6.asm
CR2B                                  5009         no  WORD  Internal   ABS     21  private  undef        0     0  e:\stm_project\stm8s105c6t6\assembler\project_2\stm8s105c6.asm
CR1C                                  500D         no  WORD  Internal   ABS     26  private  undef        0     0  e:\stm_project\stm8s105c6t6\assembler\project_2\stm8s105c6.asm
CR2C                                  500E         no  WORD  Internal   ABS     27  private  undef        0     0  e:\stm_project\stm8s105c6t6\assembler\project_2\stm8s105c6.asm
CR1D                                  5012         no  WORD  Internal   ABS     32  private  undef        0     0  e:\stm_project\stm8s105c6t6\assembler\project_2\stm8s105c6.asm
CR2D                                  5013         no  WORD  Internal   ABS     33  private  undef        0     0  e:\stm_project\stm8s105c6t6\assembler\project_2\stm8s105c6.asm
CR1E                                  5017         no  WORD  Internal   ABS     38  private  undef        0     0  e:\stm_project\stm8s105c6t6\assembler\project_2\stm8s105c6.asm
CR2E                                  5018         no  WORD  Internal   ABS     39  private  undef        0     0  e:\stm_project\stm8s105c6t6\assembler\project_2\stm8s105c6.asm
CR1G                                  5021         no  WORD  Internal   ABS     44  private  undef        0     0  e:\stm_project\stm8s105c6t6\assembler\project_2\stm8s105c6.asm
CR2G                                  5022         no  WORD  Internal   ABS     45  private  undef        0     0  e:\stm_project\stm8s105c6t6\assembler\project_2\stm8s105c6.asm
CLK_ICKR                              50C0         no  WORD  Internal   ABS     51  private  undef        0     0  e:\stm_project\stm8s105c6t6\assembler\project_2\stm8s105c6.asm
CLK_ECKR                              50C1         no  WORD  Internal   ABS     52  private  undef        0     0  e:\stm_project\stm8s105c6t6\assembler\project_2\stm8s105c6.asm
CLK_CMSR                              50C3         no  WORD  Internal   ABS     53  private  undef        0     0  e:\stm_project\stm8s105c6t6\assembler\project_2\stm8s105c6.asm
CLK_SWR                               50C4         no  WORD  Internal   ABS     54  private  undef        0     0  e:\stm_project\stm8s105c6t6\assembler\project_2\stm8s105c6.asm
CLK_SWCR                              50C5         no  WORD  Internal   ABS     55  private  undef        0     0  e:\stm_project\stm8s105c6t6\assembler\project_2\stm8s105c6.asm
CLK_CKDIVR                            50C6         no  WORD  Internal   ABS     56  private  undef        0     0  e:\stm_project\stm8s105c6t6\assembler\project_2\stm8s105c6.asm
CLK_PCKENR1                           50C7         no  WORD  Internal   ABS     57  private  undef        0     0  e:\stm_project\stm8s105c6t6\assembler\project_2\stm8s105c6.asm
CLK_CSSR                              50C8         no  WORD  Internal   ABS     58  private  undef        0     0  e:\stm_project\stm8s105c6t6\assembler\project_2\stm8s105c6.asm
CLK_CCOR                              50C9         no  WORD  Internal   ABS     59  private  undef        0     0  e:\stm_project\stm8s105c6t6\assembler\project_2\stm8s105c6.asm
CLK_PCKENR2                           50CA         no  WORD  Internal   ABS     60  private  undef        0     0  e:\stm_project\stm8s105c6t6\assembler\project_2\stm8s105c6.asm
CLK_CANCCR                            50CB         no  WORD  Internal   ABS     61  private  undef        0     0  e:\stm_project\stm8s105c6t6\assembler\project_2\stm8s105c6.asm
STMicroelectronics list file postprocessor v1.01   (C)2009-2014   Sun Jul 06 23:27:10 2014
Page 56  Assembler
                                               e:\stm_project\stm8s105c6t6\assembler\project_2\general.asm

CLK_HSITRIMR                          50CC         no  WORD  Internal   ABS     62  private  undef        0     0  e:\stm_project\stm8s105c6t6\assembler\project_2\stm8s105c6.asm
CLK_SWIMCCR                           50CD         no  WORD  Internal   ABS     63  private  undef        0     0  e:\stm_project\stm8s105c6t6\assembler\project_2\stm8s105c6.asm
CFG_GCR                               7F60         no  WORD  Internal   ABS    205  private  undef        0     0  e:\stm_project\stm8s105c6t6\assembler\project_2\stm8s105c6.asm
CCR                                   7F0A         no  WORD  Internal   ABS    216  private  undef        0     0  e:\stm_project\stm8s105c6t6\assembler\project_2\stm8s105c6.asm
ClearRam0                             8088         no  WORD  Internal   ABS    233  private  text        10     0  e:\stm_project\stm8s105c6t6\assembler\project_2\stm8s105c6.asm
ClearRam1                             8092         no  WORD  Internal   ABS    239  private  text        10     0  e:\stm_project\stm8s105c6t6\assembler\project_2\stm8s105c6.asm
ClearStack                            809C         no  WORD  Internal   ABS    245  private  text        10     0  e:\stm_project\stm8s105c6t6\assembler\project_2\stm8s105c6.asm
CounterI                              0028         no  WORD  Internal   ABS     43  private  text         0     0  e:\stm_project\stm8s105c6t6\assembler\project_2\ramvars.asm
Column                                0040         no  WORD  Internal   ABS     74  private  text         0     0  e:\stm_project\stm8s105c6t6\assembler\project_2\ramvars.asm
CycleI                                0041         no  WORD  Internal   ABS     75  private  text         0     0  e:\stm_project\stm8s105c6t6\assembler\project_2\ramvars.asm
CycleJ                                0042         no  WORD  Internal   ABS     76  private  text         0     0  e:\stm_project\stm8s105c6t6\assembler\project_2\ramvars.asm
CheckLine                             80C9         no  WORD  Internal   ABS     18  private  textdata    24     0  e:\stm_project\stm8s105c6t6\assembler\project_2\matrixkeyboard.asm
ClearStatusKeyboard                   80E1         no  WORD  Internal   ABS     39  private  textdata    17     0  e:\stm_project\stm8s105c6t6\assembler\project_2\matrixkeyboard.asm
CalcSin                               87F7         no  WORD  Internal   ABS     94  private  textdata    33     0  e:\stm_project\stm8s105c6t6\assembler\project_2\basicmath.asm
CS                                    0001         no  WORD  Internal   ABS      5  private  textdata     0     0  e:\stm_project\stm8s105c6t6\assembler\project_2\lcdnokia.asm
CycleDrawLine                         8C4F         no  WORD  Internal   ABS    346  private  text        21     0  e:\stm_project\stm8s105c6t6\assembler\project_2\lcdnokia.asm
CyclingI                              8D4E         no  WORD  Internal   ABS    488  private  text         6     0  e:\stm_project\stm8s105c6t6\assembler\project_2\lcdnokia.asm
CyclingJ                              8D54         no  WORD  Internal   ABS    491  private  text        82     0  e:\stm_project\stm8s105c6t6\assembler\project_2\lcdnokia.asm
CycleS                                8DD5         no  WORD  Internal   ABS    576  private  text        21     0  e:\stm_project\stm8s105c6t6\assembler\project_2\lcdnokia.asm
ClrTemp7                              9255         no  WORD  Internal   ABS    167  private  textdata     3     0  -

DDRA                                  5002         no  WORD  Internal   ABS     13  private  undef        0     0  e:\stm_project\stm8s105c6t6\assembler\project_2\stm8s105c6.asm
DDRB                                  5007         no  WORD  Internal   ABS     19  private  undef        0     0  e:\stm_project\stm8s105c6t6\assembler\project_2\stm8s105c6.asm
DDRC                                  500C         no  WORD  Internal   ABS     25  private  undef        0     0  e:\stm_project\stm8s105c6t6\assembler\project_2\stm8s105c6.asm
DDRD                                  5011         no  WORD  Internal   ABS     31  private  undef        0     0  e:\stm_project\stm8s105c6t6\assembler\project_2\stm8s105c6.asm
DDRE                                  5016         no  WORD  Internal   ABS     37  private  undef        0     0  e:\stm_project\stm8s105c6t6\assembler\project_2\stm8s105c6.asm
DDRG                                  5020         no  WORD  Internal   ABS     43  private  undef        0     0  e:\stm_project\stm8s105c6t6\assembler\project_2\stm8s105c6.asm
DelayCycle                            000E         no  WORD  Internal   ABS     16  private  text         0     0  e:\stm_project\stm8s105c6t6\assembler\project_2\ramvars.asm
DrawRect                              8A88         no  WORD  Internal   ABS    202  private  text       117     0  e:\stm_project\stm8s105c6t6\assembler\project_2\lcdnokia.asm
DrawProgress                          8AFD         no  WORD  Internal   ABS    224  private  text       185     0  e:\stm_project\stm8s105c6t6\assembler\project_2\lcdnokia.asm
DrawBackground                        8DB3         no  WORD  Internal   ABS    540  private  text        15     0  e:\stm_project\stm8s105c6t6\assembler\project_2\lcdnokia.asm
DrawingSymbol                         8DEA         no  WORD  Internal   ABS    587  private  text        22     0  e:\stm_project\stm8s105c6t6\assembler\project_2\lcdnokia.asm
DrawingSymbol2                        8E0D         no  WORD  Internal   ABS    610  private  text        51     0  e:\stm_project\stm8s105c6t6\assembler\project_2\lcdnokia.asm
DrawTablo1                            8EFC         no  WORD  Internal   ABS      7  private  textdata    57     0  e:\stm_project\stm8s105c6t6\assembler\project_2\analogclock.asm
DrawTablo                             8F35         no  WORD  Internal   ABS     15  private  textdata    57     0  e:\stm_project\stm8s105c6t6\assembler\project_2\analogclock.asm
DrawTablo2                            8F6E         no  WORD  Internal   ABS     23  private  textdata    57     0  e:\stm_project\stm8s105c6t6\assembler\project_2\analogclock.asm
DrawTablo3                            8FA7         no  WORD  Internal   ABS     31  private  textdata    91     0  e:\stm_project\stm8s105c6t6\assembler\project_2\analogclock.asm
DoRender                              9009         no  WORD  Internal   ABS     53  private  textdata    61     0  e:\stm_project\stm8s105c6t6\assembler\project_2\analogclock.asm
DecLight                              925B         no  WORD  Internal   ABS    173  private  textdata     9     0  -

EXTI_CR1                              50A0         no  WORD  Internal   ABS     47  private  undef        0     0  e:\stm_project\stm8s105c6t6\assembler\project_2\stm8s105c6.asm
EXTI_CR2                              50A1         no  WORD  Internal   ABS     48  private  undef        0     0  e:\stm_project\stm8s105c6t6\assembler\project_2\stm8s105c6.asm
ES                                    0025         no  WORD  Internal   ABS     40  private  text         0     0  e:\stm_project\stm8s105c6t6\assembler\project_2\ramvars.asm
EL                                    0026         no  WORD  Internal   ABS     41  private  text         0     0  e:\stm_project\stm8s105c6t6\assembler\project_2\ramvars.asm
Err                                   0027         no  WORD  Internal   ABS     42  private  text         0     0  e:\stm_project\stm8s105c6t6\assembler\project_2\ramvars.asm

FLASH_CR1                             505A         no  WORD  Internal   ABS     86  private  undef        0     0  e:\stm_project\stm8s105c6t6\assembler\project_2\stm8s105c6.asm
FLASH_CR2                             505B         no  WORD  Internal   ABS     87  private  undef        0     0  e:\stm_project\stm8s105c6t6\assembler\project_2\stm8s105c6.asm
FLASH_NCR2                            505C         no  WORD  Internal   ABS     88  private  undef        0     0  e:\stm_project\stm8s105c6t6\assembler\project_2\stm8s105c6.asm
FLASH_FPR                             505D         no  WORD  Internal   ABS     89  private  undef        0     0  e:\stm_project\stm8s105c6t6\assembler\project_2\stm8s105c6.asm
FLASH_NFPR                            505E         no  WORD  Internal   ABS     90  private  undef        0     0  e:\stm_project\stm8s105c6t6\assembler\project_2\stm8s105c6.asm
FLASH_IAPSR                           505F         no  WORD  Internal   ABS     91  private  undef        0     0  e:\stm_project\stm8s105c6t6\assembler\project_2\stm8s105c6.asm
FLASH_PUKR                            5062         no  WORD  Internal   ABS     92  private  undef        0     0  e:\stm_project\stm8s105c6t6\assembler\project_2\stm8s105c6.asm
FLASH_DUKR                            5064         no  WORD  Internal   ABS     93  private  undef        0     0  e:\stm_project\stm8s105c6t6\assembler\project_2\stm8s105c6.asm
Font6x8                               817B         no  WORD  Internal   ABS      1  private  textdata  1532     1  e:\stm_project\stm8s105c6t6\assembler\project_2\font6x8.asm

GeneralCycle                          80A6         no  WORD  Internal   ABS    251  private  text         4     0  e:\stm_project\stm8s105c6t6\assembler\project_2\stm8s105c6.asm
STMicroelectronics list file postprocessor v1.01   (C)2009-2014   Sun Jul 06 23:27:10 2014
Page 57  Assembler
                                               e:\stm_project\stm8s105c6t6\assembler\project_2\general.asm

GT                                    0048         no  WORD  Internal   ABS     83  private  text         0     0  e:\stm_project\stm8s105c6t6\assembler\project_2\ramvars.asm

HeightS                               003E         no  WORD  Internal   ABS     72  private  text         0     0  e:\stm_project\stm8s105c6t6\assembler\project_2\ramvars.asm
HandlerButton                         8130         no  WORD  Internal   ABS     78  private  textdata     8     0  e:\stm_project\stm8s105c6t6\assembler\project_2\matrixkeyboard.asm

IWDG_KR                               50E0         no  WORD  Internal   ABS     97  private  undef        0     0  e:\stm_project\stm8s105c6t6\assembler\project_2\stm8s105c6.asm
IWDG_PR                               50E1         no  WORD  Internal   ABS     98  private  undef        0     0  e:\stm_project\stm8s105c6t6\assembler\project_2\stm8s105c6.asm
IWDG_RLR                              50E2         no  WORD  Internal   ABS     99  private  undef        0     0  e:\stm_project\stm8s105c6t6\assembler\project_2\stm8s105c6.asm
ITC_SPR1                              7F70         no  WORD  Internal   ABS    206  private  undef        0     0  e:\stm_project\stm8s105c6t6\assembler\project_2\stm8s105c6.asm
ITC_SPR2                              7F71         no  WORD  Internal   ABS    207  private  undef        0     0  e:\stm_project\stm8s105c6t6\assembler\project_2\stm8s105c6.asm
ITC_SPR3                              7F72         no  WORD  Internal   ABS    208  private  undef        0     0  e:\stm_project\stm8s105c6t6\assembler\project_2\stm8s105c6.asm
ITC_SPR4                              7F73         no  WORD  Internal   ABS    209  private  undef        0     0  e:\stm_project\stm8s105c6t6\assembler\project_2\stm8s105c6.asm
ITC_SPR5                              7F74         no  WORD  Internal   ABS    210  private  undef        0     0  e:\stm_project\stm8s105c6t6\assembler\project_2\stm8s105c6.asm
ITC_SPR6                              7F75         no  WORD  Internal   ABS    211  private  undef        0     0  e:\stm_project\stm8s105c6t6\assembler\project_2\stm8s105c6.asm
ITC_SPR7                              7F76         no  WORD  Internal   ABS    212  private  undef        0     0  e:\stm_project\stm8s105c6t6\assembler\project_2\stm8s105c6.asm
ITC_SPR8                              7F77         no  WORD  Internal   ABS    213  private  undef        0     0  e:\stm_project\stm8s105c6t6\assembler\project_2\stm8s105c6.asm
InitMemory                            8081         no  WORD  Internal   ABS    228  private  text         7     0  e:\stm_project\stm8s105c6t6\assembler\project_2\stm8s105c6.asm
IncX                                  0021         no  WORD  Internal   ABS     36  private  text         0     0  e:\stm_project\stm8s105c6t6\assembler\project_2\ramvars.asm
IncY                                  0022         no  WORD  Internal   ABS     37  private  text         0     0  e:\stm_project\stm8s105c6t6\assembler\project_2\ramvars.asm
IsRender                              0050         no  WORD  Internal   ABS     90  private  text         0     0  e:\stm_project\stm8s105c6t6\assembler\project_2\ramvars.asm
INCResult                             8818         no  WORD  Internal   ABS    113  private  textdata     4     0  e:\stm_project\stm8s105c6t6\assembler\project_2\basicmath.asm
InitLCD                               8E40         no  WORD  Internal   ABS    629  private  text       153     0  e:\stm_project\stm8s105c6t6\assembler\project_2\lcdnokia.asm
InitAnalogClock                       8ED9         no  WORD  Internal   ABS      4  private  textdata    35     0  e:\stm_project\stm8s105c6t6\assembler\project_2\analogclock.asm
InitPortsIO                           9145         no  WORD  Internal   ABS     46  private  textdata    85     0  -
InitTimers                            919A         no  WORD  Internal   ABS     77  private  textdata    81     0  -
InitSystemClock                       91EB         no  WORD  Internal   ABS    104  private  textdata    12     0  -
InitSPI                               920A         no  WORD  Internal   ABS    116  private  textdata    13     0  -
InitBeeper                            9217         no  WORD  Internal   ABS    122  private  textdata     5     0  -
IncLight                              924C         no  WORD  Internal   ABS    161  private  textdata     9     0  -
IncSymbol                             93F3         no  WORD  Internal   ABS    211  private  textdata     5     0  -

KeyboardFlag                          0052         no  WORD  Internal   ABS     95  private  text         0     0  e:\stm_project\stm8s105c6t6\assembler\project_2\ramvars.asm

Length                                002A         no  WORD  Internal   ABS     46  private  text         0     0  e:\stm_project\stm8s105c6t6\assembler\project_2\ramvars.asm
LengthLine                            0031         no  WORD  Internal   ABS     56  private  text         0     0  e:\stm_project\stm8s105c6t6\assembler\project_2\ramvars.asm
LvlLed                                004F         no  WORD  Internal   ABS     89  private  text         0     0  e:\stm_project\stm8s105c6t6\assembler\project_2\ramvars.asm
LvlLed2                               0051         no  WORD  Internal   ABS     91  private  text         0     0  e:\stm_project\stm8s105c6t6\assembler\project_2\ramvars.asm
Line1                                 0053         no  WORD  Internal   ABS     97  private  text         0     0  e:\stm_project\stm8s105c6t6\assembler\project_2\ramvars.asm
Line2                                 0054         no  WORD  Internal   ABS     98  private  text         0     0  e:\stm_project\stm8s105c6t6\assembler\project_2\ramvars.asm
Line3                                 0055         no  WORD  Internal   ABS     99  private  text         0     0  e:\stm_project\stm8s105c6t6\assembler\project_2\ramvars.asm
Line4                                 0056         no  WORD  Internal   ABS    100  private  text         0     0  e:\stm_project\stm8s105c6t6\assembler\project_2\ramvars.asm
LCDPort                               501E         no  WORD  Internal   ABS      6  private  textdata     0     0  e:\stm_project\stm8s105c6t6\assembler\project_2\lcdnokia.asm
Loop                                  8969         no  WORD  Internal   ABS     14  private  text         5     0  e:\stm_project\stm8s105c6t6\assembler\project_2\lcdnokia.asm
Label1                                8BB6         no  WORD  Internal   ABS    279  private  text        13     0  e:\stm_project\stm8s105c6t6\assembler\project_2\lcdnokia.asm
Label2                                8BC3         no  WORD  Internal   ABS    285  private  text        11     0  e:\stm_project\stm8s105c6t6\assembler\project_2\lcdnokia.asm
Label3                                8BCE         no  WORD  Internal   ABS    289  private  text        13     0  e:\stm_project\stm8s105c6t6\assembler\project_2\lcdnokia.asm
Label4                                8BDB         no  WORD  Internal   ABS    295  private  text        11     0  e:\stm_project\stm8s105c6t6\assembler\project_2\lcdnokia.asm
Label5                                8BE6         no  WORD  Internal   ABS    299  private  text        16     0  e:\stm_project\stm8s105c6t6\assembler\project_2\lcdnokia.asm
Label1and2Return                      8C0C         no  WORD  Internal   ABS    318  private  text        22     0  e:\stm_project\stm8s105c6t6\assembler\project_2\lcdnokia.asm
Label3and4Return                      8C22         no  WORD  Internal   ABS    330  private  text        19     0  e:\stm_project\stm8s105c6t6\assembler\project_2\lcdnokia.asm
Label5Return                          8C35         no  WORD  Internal   ABS    339  private  text        26     0  e:\stm_project\stm8s105c6t6\assembler\project_2\lcdnokia.asm
Label7Return                          8C64         no  WORD  Internal   ABS    358  private  text        11     0  e:\stm_project\stm8s105c6t6\assembler\project_2\lcdnokia.asm
Label6Return                          8C6F         no  WORD  Internal   ABS    363  private  text        23     0  e:\stm_project\stm8s105c6t6\assembler\project_2\lcdnokia.asm
Label6                                8C86         no  WORD  Internal   ABS    370  private  text        17     0  e:\stm_project\stm8s105c6t6\assembler\project_2\lcdnokia.asm
Label9Return                          8C97         no  WORD  Internal   ABS    378  private  text        14     0  e:\stm_project\stm8s105c6t6\assembler\project_2\lcdnokia.asm
Label7                                8CA5         no  WORD  Internal   ABS    384  private  text         9     0  e:\stm_project\stm8s105c6t6\assembler\project_2\lcdnokia.asm
Label8                                8CAE         no  WORD  Internal   ABS    389  private  text         9     0  e:\stm_project\stm8s105c6t6\assembler\project_2\lcdnokia.asm
STMicroelectronics list file postprocessor v1.01   (C)2009-2014   Sun Jul 06 23:27:10 2014
Page 58  Assembler
                                               e:\stm_project\stm8s105c6t6\assembler\project_2\general.asm

Label9                                8CB7         no  WORD  Internal   ABS    394  private  text         9     0  e:\stm_project\stm8s105c6t6\assembler\project_2\lcdnokia.asm
Label10                               8CC0         no  WORD  Internal   ABS    399  private  text         9     0  e:\stm_project\stm8s105c6t6\assembler\project_2\lcdnokia.asm
LOC1                                  9046         no  WORD  Internal   ABS     56  private  textdata     5     1  e:\stm_project\stm8s105c6t6\assembler\project_2\analogclock.asm
LOC0                                  904B         no  WORD  Internal   ABS     56  private  textdata   216     0  e:\stm_project\stm8s105c6t6\assembler\project_2\analogclock.asm
Looped                                91F7         no  WORD  Internal   ABS    108  private  textdata    13     0  -
Looped2                               9204         no  WORD  Internal   ABS    112  private  textdata     6     0  -
LOC3                                  9295         no  WORD  Internal   ABS    191  private  textdata    22     1  -
LOC2                                  92AB         no  WORD  Internal   ABS    191  private  textdata    38     0  -
LOC5                                  92D1         no  WORD  Internal   ABS    193  private  textdata    18     1  -
LOC4                                  92E3         no  WORD  Internal   ABS    193  private  textdata    38     0  -
LOC7                                  9309         no  WORD  Internal   ABS    195  private  textdata    24     1  -
LOC6                                  9321         no  WORD  Internal   ABS    195  private  textdata    38     0  -
LOC9                                  9347         no  WORD  Internal   ABS    197  private  textdata    16     1  -
LOC8                                  9357         no  WORD  Internal   ABS    197  private  textdata    38     0  -
LOCb                                  937D         no  WORD  Internal   ABS    199  private  textdata    15     1  -
LOCa                                  938C         no  WORD  Internal   ABS    199  private  textdata    38     0  -
LOCd                                  93B2         no  WORD  Internal   ABS    201  private  textdata    19     1  -
LOCc                                  93C5         no  WORD  Internal   ABS    201  private  textdata    39     0  -

Mul16x16                              8777         no  WORD  Internal   ABS      4  private  textdata    28     0  e:\stm_project\stm8s105c6t6\assembler\project_2\basicmath.asm
MinusSinReturn                        893B         no  WORD  Internal   ABS    226  private  textdata    13     0  e:\stm_project\stm8s105c6t6\assembler\project_2\basicmath.asm
MinusSin                              8948         no  WORD  Internal   ABS    234  private  textdata     9     0  e:\stm_project\stm8s105c6t6\assembler\project_2\basicmath.asm
MinusCos                              8951         no  WORD  Internal   ABS    239  private  textdata     7     0  e:\stm_project\stm8s105c6t6\assembler\project_2\basicmath.asm
Main                                  93EC         no  WORD  Internal   ABS    206  private  textdata     7     0  -

NoneInterrupt                         8080         no  WORD  Internal   ABS    225  private  text         1     0  e:\stm_project\stm8s105c6t6\assembler\project_2\stm8s105c6.asm
Next1                                 8138         no  WORD  Internal   ABS     83  private  textdata     8     0  e:\stm_project\stm8s105c6t6\assembler\project_2\matrixkeyboard.asm
Next2                                 8140         no  WORD  Internal   ABS     88  private  textdata     8     0  e:\stm_project\stm8s105c6t6\assembler\project_2\matrixkeyboard.asm
Next3                                 8148         no  WORD  Internal   ABS     93  private  textdata     5     0  e:\stm_project\stm8s105c6t6\assembler\project_2\matrixkeyboard.asm
Next4                                 814D         no  WORD  Internal   ABS     98  private  textdata     5     0  e:\stm_project\stm8s105c6t6\assembler\project_2\matrixkeyboard.asm
Next5                                 8152         no  WORD  Internal   ABS    103  private  textdata     5     0  e:\stm_project\stm8s105c6t6\assembler\project_2\matrixkeyboard.asm
Next6                                 8157         no  WORD  Internal   ABS    108  private  textdata     5     0  e:\stm_project\stm8s105c6t6\assembler\project_2\matrixkeyboard.asm
Next7                                 815C         no  WORD  Internal   ABS    113  private  textdata     5     0  e:\stm_project\stm8s105c6t6\assembler\project_2\matrixkeyboard.asm
Next8                                 8161         no  WORD  Internal   ABS    118  private  textdata     5     0  e:\stm_project\stm8s105c6t6\assembler\project_2\matrixkeyboard.asm
Next9                                 8166         no  WORD  Internal   ABS    123  private  textdata     5     0  e:\stm_project\stm8s105c6t6\assembler\project_2\matrixkeyboard.asm
Next10                                816B         no  WORD  Internal   ABS    128  private  textdata     5     0  e:\stm_project\stm8s105c6t6\assembler\project_2\matrixkeyboard.asm
Next11                                8170         no  WORD  Internal   ABS    133  private  textdata     5     0  e:\stm_project\stm8s105c6t6\assembler\project_2\matrixkeyboard.asm
NextCheck                             8E00         no  WORD  Internal   ABS    600  private  text        12     0  e:\stm_project\stm8s105c6t6\assembler\project_2\lcdnokia.asm

OldLine1                              0057         no  WORD  Internal   ABS    101  private  text         0     0  e:\stm_project\stm8s105c6t6\assembler\project_2\ramvars.asm
OldLine2                              0058         no  WORD  Internal   ABS    102  private  text         0     0  e:\stm_project\stm8s105c6t6\assembler\project_2\ramvars.asm
OldLine3                              0059         no  WORD  Internal   ABS    103  private  text         0     0  e:\stm_project\stm8s105c6t6\assembler\project_2\ramvars.asm
OldLine4                              005A         no  WORD  Internal   ABS    104  private  text         0     0  e:\stm_project\stm8s105c6t6\assembler\project_2\ramvars.asm
OutHandler                            8175         no  WORD  Internal   ABS    138  private  textdata     1     0  e:\stm_project\stm8s105c6t6\assembler\project_2\matrixkeyboard.asm
OnDownButton1                         93F8         no  WORD  Internal   ABS    215  private  textdata    71     0  -
OnDownButton2                         943F         no  WORD  Internal   ABS    219  private  textdata    36     0  -
OnDownButton3                         9463         no  WORD  Internal   ABS    222  private  textdata    36     0  -

PORTA                                 5000         no  WORD  Internal   ABS     11  private  undef        0     0  e:\stm_project\stm8s105c6t6\assembler\project_2\stm8s105c6.asm
PINA                                  5001         no  WORD  Internal   ABS     12  private  undef        0     0  e:\stm_project\stm8s105c6t6\assembler\project_2\stm8s105c6.asm
PORTB                                 5005         no  WORD  Internal   ABS     17  private  undef        0     0  e:\stm_project\stm8s105c6t6\assembler\project_2\stm8s105c6.asm
PINB                                  5006         no  WORD  Internal   ABS     18  private  undef        0     0  e:\stm_project\stm8s105c6t6\assembler\project_2\stm8s105c6.asm
PORTC                                 500A         no  WORD  Internal   ABS     23  private  undef        0     0  e:\stm_project\stm8s105c6t6\assembler\project_2\stm8s105c6.asm
PINC                                  500B         no  WORD  Internal   ABS     24  private  undef        0     0  e:\stm_project\stm8s105c6t6\assembler\project_2\stm8s105c6.asm
PORTD                                 500F         no  WORD  Internal   ABS     29  private  undef        0     0  e:\stm_project\stm8s105c6t6\assembler\project_2\stm8s105c6.asm
PIND                                  5010         no  WORD  Internal   ABS     30  private  undef        0     0  e:\stm_project\stm8s105c6t6\assembler\project_2\stm8s105c6.asm
PORTE                                 5014         no  WORD  Internal   ABS     35  private  undef        0     0  e:\stm_project\stm8s105c6t6\assembler\project_2\stm8s105c6.asm
STMicroelectronics list file postprocessor v1.01   (C)2009-2014   Sun Jul 06 23:27:10 2014
Page 59  Assembler
                                               e:\stm_project\stm8s105c6t6\assembler\project_2\general.asm

PINE                                  5015         no  WORD  Internal   ABS     36  private  undef        0     0  e:\stm_project\stm8s105c6t6\assembler\project_2\stm8s105c6.asm
PORTG                                 501E         no  WORD  Internal   ABS     41  private  undef        0     0  e:\stm_project\stm8s105c6t6\assembler\project_2\stm8s105c6.asm
PING                                  501F         no  WORD  Internal   ABS     42  private  undef        0     0  e:\stm_project\stm8s105c6t6\assembler\project_2\stm8s105c6.asm
Posit                                 000D         no  WORD  Internal   ABS     15  private  text         0     0  e:\stm_project\stm8s105c6t6\assembler\project_2\ramvars.asm
Position                              003F         no  WORD  Internal   ABS     73  private  text         0     0  e:\stm_project\stm8s105c6t6\assembler\project_2\ramvars.asm
PreDrawingSymbol2                     8E0C         no  WORD  Internal   ABS    607  private  text         1     0  e:\stm_project\stm8s105c6t6\assembler\project_2\lcdnokia.asm

RST_SR                                50B3         no  WORD  Internal   ABS     49  private  undef        0     0  e:\stm_project\stm8s105c6t6\assembler\project_2\stm8s105c6.asm
Result                                002C         no  WORD  Internal   ABS     48  private  text         0     0  e:\stm_project\stm8s105c6t6\assembler\project_2\ramvars.asm
RT                                    0047         no  WORD  Internal   ABS     82  private  text         0     0  e:\stm_project\stm8s105c6t6\assembler\project_2\ramvars.asm
ReadKeyboard                          80FF         no  WORD  Internal   ABS     54  private  textdata    49     0  e:\stm_project\stm8s105c6t6\assembler\project_2\matrixkeyboard.asm
ReturnDrawBackground                  8DA6         no  WORD  Internal   ABS    530  private  text        13     0  e:\stm_project\stm8s105c6t6\assembler\project_2\lcdnokia.asm
RenderClock                           9002         no  WORD  Internal   ABS     48  private  textdata     7     0  e:\stm_project\stm8s105c6t6\assembler\project_2\analogclock.asm

SPI_CR1                               5200         no  WORD  Internal   ABS     77  private  undef        0     0  e:\stm_project\stm8s105c6t6\assembler\project_2\stm8s105c6.asm
SPI_CR2                               5201         no  WORD  Internal   ABS     78  private  undef        0     0  e:\stm_project\stm8s105c6t6\assembler\project_2\stm8s105c6.asm
SPI_ICR                               5202         no  WORD  Internal   ABS     79  private  undef        0     0  e:\stm_project\stm8s105c6t6\assembler\project_2\stm8s105c6.asm
SPI_SR                                5203         no  WORD  Internal   ABS     80  private  undef        0     0  e:\stm_project\stm8s105c6t6\assembler\project_2\stm8s105c6.asm
SPI_DR                                5204         no  WORD  Internal   ABS     81  private  undef        0     0  e:\stm_project\stm8s105c6t6\assembler\project_2\stm8s105c6.asm
SPI_CRCPR                             5205         no  WORD  Internal   ABS     82  private  undef        0     0  e:\stm_project\stm8s105c6t6\assembler\project_2\stm8s105c6.asm
SPI_RXCRCR                            5206         no  WORD  Internal   ABS     83  private  undef        0     0  e:\stm_project\stm8s105c6t6\assembler\project_2\stm8s105c6.asm
SPI_TXCRCR                            5207         no  WORD  Internal   ABS     84  private  undef        0     0  e:\stm_project\stm8s105c6t6\assembler\project_2\stm8s105c6.asm
SWIM_CSR                              7F80         no  WORD  Internal   ABS    214  private  undef        0     0  e:\stm_project\stm8s105c6t6\assembler\project_2\stm8s105c6.asm
Sign                                  002B         no  WORD  Internal   ABS     47  private  text         0     0  e:\stm_project\stm8s105c6t6\assembler\project_2\ramvars.asm
Symbol                                003A         no  WORD  Internal   ABS     68  private  text         0     0  e:\stm_project\stm8s105c6t6\assembler\project_2\ramvars.asm
ScaleX                                003B         no  WORD  Internal   ABS     69  private  text         0     0  e:\stm_project\stm8s105c6t6\assembler\project_2\ramvars.asm
ScaleY                                003C         no  WORD  Internal   ABS     70  private  text         0     0  e:\stm_project\stm8s105c6t6\assembler\project_2\ramvars.asm
Shift                                 004D         no  WORD  Internal   ABS     86  private  text         0     0  e:\stm_project\stm8s105c6t6\assembler\project_2\ramvars.asm
Sinus                                 8899         no  WORD  Internal   ABS    202  private  textdata   120     2  e:\stm_project\stm8s105c6t6\assembler\project_2\basicmath.asm
SendData                              8A0A         no  WORD  Internal   ABS    116  private  text        24     0  e:\stm_project\stm8s105c6t6\assembler\project_2\lcdnokia.asm
SkipReset                             9139         no  WORD  Internal   ABS     80  private  textdata     6     0  e:\stm_project\stm8s105c6t6\assembler\project_2\analogclock.asm
Skipper                               913F         no  WORD  Internal   ABS     84  private  textdata     1     0  e:\stm_project\stm8s105c6t6\assembler\project_2\analogclock.asm
SetTemp7                              9258         no  WORD  Internal   ABS    170  private  textdata     3     0  -
SystemStart                           9264         no  WORD  Internal   ABS    182  private  textdata    49     0  -

TIM1_CR1                              5250         no  WORD  Internal   ABS    105  private  undef        0     0  e:\stm_project\stm8s105c6t6\assembler\project_2\stm8s105c6.asm
TIM1_CR2                              5251         no  WORD  Internal   ABS    106  private  undef        0     0  e:\stm_project\stm8s105c6t6\assembler\project_2\stm8s105c6.asm
TIM1_SMCR                             5252         no  WORD  Internal   ABS    107  private  undef        0     0  e:\stm_project\stm8s105c6t6\assembler\project_2\stm8s105c6.asm
TIM1_ETR                              5253         no  WORD  Internal   ABS    108  private  undef        0     0  e:\stm_project\stm8s105c6t6\assembler\project_2\stm8s105c6.asm
TIM1_IER                              5254         no  WORD  Internal   ABS    109  private  undef        0     0  e:\stm_project\stm8s105c6t6\assembler\project_2\stm8s105c6.asm
TIM1_SR1                              5255         no  WORD  Internal   ABS    110  private  undef        0     0  e:\stm_project\stm8s105c6t6\assembler\project_2\stm8s105c6.asm
TIM1_SR2                              5256         no  WORD  Internal   ABS    111  private  undef        0     0  e:\stm_project\stm8s105c6t6\assembler\project_2\stm8s105c6.asm
TIM1_EGR                              5257         no  WORD  Internal   ABS    112  private  undef        0     0  e:\stm_project\stm8s105c6t6\assembler\project_2\stm8s105c6.asm
TIM1_CCMR1                            5258         no  WORD  Internal   ABS    113  private  undef        0     0  e:\stm_project\stm8s105c6t6\assembler\project_2\stm8s105c6.asm
TIM1_CCMR2                            5259         no  WORD  Internal   ABS    114  private  undef        0     0  e:\stm_project\stm8s105c6t6\assembler\project_2\stm8s105c6.asm
TIM1_CCMR3                            525A         no  WORD  Internal   ABS    115  private  undef        0     0  e:\stm_project\stm8s105c6t6\assembler\project_2\stm8s105c6.asm
TIM1_CCMR4                            525B         no  WORD  Internal   ABS    116  private  undef        0     0  e:\stm_project\stm8s105c6t6\assembler\project_2\stm8s105c6.asm
TIM1_CCER1                            525C         no  WORD  Internal   ABS    117  private  undef        0     0  e:\stm_project\stm8s105c6t6\assembler\project_2\stm8s105c6.asm
TIM1_CCER2                            525D         no  WORD  Internal   ABS    118  private  undef        0     0  e:\stm_project\stm8s105c6t6\assembler\project_2\stm8s105c6.asm
TIM1_CNTRH                            525E         no  WORD  Internal   ABS    119  private  undef        0     0  e:\stm_project\stm8s105c6t6\assembler\project_2\stm8s105c6.asm
TIM1_CNTRL                            525F         no  WORD  Internal   ABS    120  private  undef        0     0  e:\stm_project\stm8s105c6t6\assembler\project_2\stm8s105c6.asm
TIM1_PSCRH                            5260         no  WORD  Internal   ABS    121  private  undef        0     0  e:\stm_project\stm8s105c6t6\assembler\project_2\stm8s105c6.asm
TIM1_PSCRL                            5261         no  WORD  Internal   ABS    122  private  undef        0     0  e:\stm_project\stm8s105c6t6\assembler\project_2\stm8s105c6.asm
TIM1_ARRH                             5262         no  WORD  Internal   ABS    123  private  undef        0     0  e:\stm_project\stm8s105c6t6\assembler\project_2\stm8s105c6.asm
TIM1_ARRL                             5263         no  WORD  Internal   ABS    124  private  undef        0     0  e:\stm_project\stm8s105c6t6\assembler\project_2\stm8s105c6.asm
TIM1_RCR                              5264         no  WORD  Internal   ABS    125  private  undef        0     0  e:\stm_project\stm8s105c6t6\assembler\project_2\stm8s105c6.asm
TIM1_CCR1H                            5265         no  WORD  Internal   ABS    126  private  undef        0     0  e:\stm_project\stm8s105c6t6\assembler\project_2\stm8s105c6.asm
STMicroelectronics list file postprocessor v1.01   (C)2009-2014   Sun Jul 06 23:27:10 2014
Page 60  Assembler
                                               e:\stm_project\stm8s105c6t6\assembler\project_2\general.asm

TIM1_CCR1L                            5266         no  WORD  Internal   ABS    127  private  undef        0     0  e:\stm_project\stm8s105c6t6\assembler\project_2\stm8s105c6.asm
TIM1_CCR2H                            5267         no  WORD  Internal   ABS    128  private  undef        0     0  e:\stm_project\stm8s105c6t6\assembler\project_2\stm8s105c6.asm
TIM1_CCR2L                            5268         no  WORD  Internal   ABS    129  private  undef        0     0  e:\stm_project\stm8s105c6t6\assembler\project_2\stm8s105c6.asm
TIM1_CCR3H                            5269         no  WORD  Internal   ABS    130  private  undef        0     0  e:\stm_project\stm8s105c6t6\assembler\project_2\stm8s105c6.asm
TIM1_CCR3L                            526A         no  WORD  Internal   ABS    131  private  undef        0     0  e:\stm_project\stm8s105c6t6\assembler\project_2\stm8s105c6.asm
TIM1_CCR4H                            526B         no  WORD  Internal   ABS    132  private  undef        0     0  e:\stm_project\stm8s105c6t6\assembler\project_2\stm8s105c6.asm
TIM1_CCR4L                            526C         no  WORD  Internal   ABS    133  private  undef        0     0  e:\stm_project\stm8s105c6t6\assembler\project_2\stm8s105c6.asm
TIM1_BKR                              526D         no  WORD  Internal   ABS    134  private  undef        0     0  e:\stm_project\stm8s105c6t6\assembler\project_2\stm8s105c6.asm
TIM1_DTR                              526E         no  WORD  Internal   ABS    135  private  undef        0     0  e:\stm_project\stm8s105c6t6\assembler\project_2\stm8s105c6.asm
TIM1_OISR                             526F         no  WORD  Internal   ABS    136  private  undef        0     0  e:\stm_project\stm8s105c6t6\assembler\project_2\stm8s105c6.asm
TIM2_CR1                              5300         no  WORD  Internal   ABS    140  private  undef        0     0  e:\stm_project\stm8s105c6t6\assembler\project_2\stm8s105c6.asm
TIM2_IER                              5301         no  WORD  Internal   ABS    141  private  undef        0     0  e:\stm_project\stm8s105c6t6\assembler\project_2\stm8s105c6.asm
TIM2_SR1                              5302         no  WORD  Internal   ABS    142  private  undef        0     0  e:\stm_project\stm8s105c6t6\assembler\project_2\stm8s105c6.asm
TIM2_SR2                              5303         no  WORD  Internal   ABS    143  private  undef        0     0  e:\stm_project\stm8s105c6t6\assembler\project_2\stm8s105c6.asm
TIM2_EGR                              5304         no  WORD  Internal   ABS    144  private  undef        0     0  e:\stm_project\stm8s105c6t6\assembler\project_2\stm8s105c6.asm
TIM2_CCMR1                            5305         no  WORD  Internal   ABS    145  private  undef        0     0  e:\stm_project\stm8s105c6t6\assembler\project_2\stm8s105c6.asm
TIM2_CCMR2                            5306         no  WORD  Internal   ABS    146  private  undef        0     0  e:\stm_project\stm8s105c6t6\assembler\project_2\stm8s105c6.asm
TIM2_CCMR3                            5307         no  WORD  Internal   ABS    147  private  undef        0     0  e:\stm_project\stm8s105c6t6\assembler\project_2\stm8s105c6.asm
TIM2_CCER1                            5308         no  WORD  Internal   ABS    148  private  undef        0     0  e:\stm_project\stm8s105c6t6\assembler\project_2\stm8s105c6.asm
TIM2_CCER2                            5309         no  WORD  Internal   ABS    149  private  undef        0     0  e:\stm_project\stm8s105c6t6\assembler\project_2\stm8s105c6.asm
TIM2_CNTRH                            530A         no  WORD  Internal   ABS    150  private  undef        0     0  e:\stm_project\stm8s105c6t6\assembler\project_2\stm8s105c6.asm
TIM2_CNTRL                            530B         no  WORD  Internal   ABS    151  private  undef        0     0  e:\stm_project\stm8s105c6t6\assembler\project_2\stm8s105c6.asm
TIM2_PSCR                             530C         no  WORD  Internal   ABS    152  private  undef        0     0  e:\stm_project\stm8s105c6t6\assembler\project_2\stm8s105c6.asm
TIM2_ARRH                             530D         no  WORD  Internal   ABS    153  private  undef        0     0  e:\stm_project\stm8s105c6t6\assembler\project_2\stm8s105c6.asm
TIM2_ARRL                             530E         no  WORD  Internal   ABS    154  private  undef        0     0  e:\stm_project\stm8s105c6t6\assembler\project_2\stm8s105c6.asm
TIM2_CCR1H                            530F         no  WORD  Internal   ABS    155  private  undef        0     0  e:\stm_project\stm8s105c6t6\assembler\project_2\stm8s105c6.asm
TIM2_CCR1L                            5310         no  WORD  Internal   ABS    156  private  undef        0     0  e:\stm_project\stm8s105c6t6\assembler\project_2\stm8s105c6.asm
TIM2_CCR2H                            5311         no  WORD  Internal   ABS    157  private  undef        0     0  e:\stm_project\stm8s105c6t6\assembler\project_2\stm8s105c6.asm
TIM2_CCR2L                            5312         no  WORD  Internal   ABS    158  private  undef        0     0  e:\stm_project\stm8s105c6t6\assembler\project_2\stm8s105c6.asm
TIM2_CCR3H                            5313         no  WORD  Internal   ABS    159  private  undef        0     0  e:\stm_project\stm8s105c6t6\assembler\project_2\stm8s105c6.asm
TIM2_CCR3L                            5314         no  WORD  Internal   ABS    160  private  undef        0     0  e:\stm_project\stm8s105c6t6\assembler\project_2\stm8s105c6.asm
TIM3_CR1                              5320         no  WORD  Internal   ABS    162  private  undef        0     0  e:\stm_project\stm8s105c6t6\assembler\project_2\stm8s105c6.asm
TIM3_IER                              5321         no  WORD  Internal   ABS    163  private  undef        0     0  e:\stm_project\stm8s105c6t6\assembler\project_2\stm8s105c6.asm
TIM3_SR1                              5322         no  WORD  Internal   ABS    164  private  undef        0     0  e:\stm_project\stm8s105c6t6\assembler\project_2\stm8s105c6.asm
TIM3_SR2                              5323         no  WORD  Internal   ABS    165  private  undef        0     0  e:\stm_project\stm8s105c6t6\assembler\project_2\stm8s105c6.asm
TIM3_EGR                              5324         no  WORD  Internal   ABS    166  private  undef        0     0  e:\stm_project\stm8s105c6t6\assembler\project_2\stm8s105c6.asm
TIM3_CCMR1                            5325         no  WORD  Internal   ABS    167  private  undef        0     0  e:\stm_project\stm8s105c6t6\assembler\project_2\stm8s105c6.asm
TIM3_CCMR2                            5326         no  WORD  Internal   ABS    168  private  undef        0     0  e:\stm_project\stm8s105c6t6\assembler\project_2\stm8s105c6.asm
TIM3_CCER1                            5327         no  WORD  Internal   ABS    169  private  undef        0     0  e:\stm_project\stm8s105c6t6\assembler\project_2\stm8s105c6.asm
TIM3_CNTRH                            5328         no  WORD  Internal   ABS    170  private  undef        0     0  e:\stm_project\stm8s105c6t6\assembler\project_2\stm8s105c6.asm
TIM3_CNTRL                            5329         no  WORD  Internal   ABS    171  private  undef        0     0  e:\stm_project\stm8s105c6t6\assembler\project_2\stm8s105c6.asm
TIM3_PSCR                             532A         no  WORD  Internal   ABS    172  private  undef        0     0  e:\stm_project\stm8s105c6t6\assembler\project_2\stm8s105c6.asm
TIM3_ARRH                             532B         no  WORD  Internal   ABS    173  private  undef        0     0  e:\stm_project\stm8s105c6t6\assembler\project_2\stm8s105c6.asm
TIM3_ARRL                             532C         no  WORD  Internal   ABS    174  private  undef        0     0  e:\stm_project\stm8s105c6t6\assembler\project_2\stm8s105c6.asm
TIM3_CCR1H                            532D         no  WORD  Internal   ABS    175  private  undef        0     0  e:\stm_project\stm8s105c6t6\assembler\project_2\stm8s105c6.asm
TIM3_CCR1L                            532E         no  WORD  Internal   ABS    176  private  undef        0     0  e:\stm_project\stm8s105c6t6\assembler\project_2\stm8s105c6.asm
TIM3_CCR2H                            532F         no  WORD  Internal   ABS    177  private  undef        0     0  e:\stm_project\stm8s105c6t6\assembler\project_2\stm8s105c6.asm
TIM3_CCR2L                            5330         no  WORD  Internal   ABS    178  private  undef        0     0  e:\stm_project\stm8s105c6t6\assembler\project_2\stm8s105c6.asm
TIM4_CR1                              5340         no  WORD  Internal   ABS    180  private  undef        0     0  e:\stm_project\stm8s105c6t6\assembler\project_2\stm8s105c6.asm
TIM4_IER                              5341         no  WORD  Internal   ABS    181  private  undef        0     0  e:\stm_project\stm8s105c6t6\assembler\project_2\stm8s105c6.asm
TIM4_SR                               5342         no  WORD  Internal   ABS    182  private  undef        0     0  e:\stm_project\stm8s105c6t6\assembler\project_2\stm8s105c6.asm
TIM4_EGR                              5343         no  WORD  Internal   ABS    183  private  undef        0     0  e:\stm_project\stm8s105c6t6\assembler\project_2\stm8s105c6.asm
TIM4_CNTR                             5344         no  WORD  Internal   ABS    184  private  undef        0     0  e:\stm_project\stm8s105c6t6\assembler\project_2\stm8s105c6.asm
TIM4_PSCR                             5345         no  WORD  Internal   ABS    185  private  undef        0     0  e:\stm_project\stm8s105c6t6\assembler\project_2\stm8s105c6.asm
TIM4_ARR                              5346         no  WORD  Internal   ABS    186  private  undef        0     0  e:\stm_project\stm8s105c6t6\assembler\project_2\stm8s105c6.asm
Temp                                  0000         no  WORD  Internal   ABS      2  private  text         0     0  e:\stm_project\stm8s105c6t6\assembler\project_2\ramvars.asm
Temp1                                 0001         no  WORD  Internal   ABS      3  private  text         0     0  e:\stm_project\stm8s105c6t6\assembler\project_2\ramvars.asm
STMicroelectronics list file postprocessor v1.01   (C)2009-2014   Sun Jul 06 23:27:10 2014
Page 61  Assembler
                                               e:\stm_project\stm8s105c6t6\assembler\project_2\general.asm

Temp2                                 0002         no  WORD  Internal   ABS      4  private  text         0     0  e:\stm_project\stm8s105c6t6\assembler\project_2\ramvars.asm
Temp3                                 0003         no  WORD  Internal   ABS      5  private  text         0     0  e:\stm_project\stm8s105c6t6\assembler\project_2\ramvars.asm
Temp4                                 0004         no  WORD  Internal   ABS      6  private  text         0     0  e:\stm_project\stm8s105c6t6\assembler\project_2\ramvars.asm
Temp5                                 0005         no  WORD  Internal   ABS      7  private  text         0     0  e:\stm_project\stm8s105c6t6\assembler\project_2\ramvars.asm
Temp6                                 0006         no  WORD  Internal   ABS      8  private  text         0     0  e:\stm_project\stm8s105c6t6\assembler\project_2\ramvars.asm
Temp7                                 0007         no  WORD  Internal   ABS      9  private  text         0     0  e:\stm_project\stm8s105c6t6\assembler\project_2\ramvars.asm
Temp8                                 0008         no  WORD  Internal   ABS     10  private  text         0     0  e:\stm_project\stm8s105c6t6\assembler\project_2\ramvars.asm
Temp9                                 0009         no  WORD  Internal   ABS     11  private  text         0     0  e:\stm_project\stm8s105c6t6\assembler\project_2\ramvars.asm
Temp10                                000A         no  WORD  Internal   ABS     12  private  text         0     0  e:\stm_project\stm8s105c6t6\assembler\project_2\ramvars.asm
Temp11                                000B         no  WORD  Internal   ABS     13  private  text         0     0  e:\stm_project\stm8s105c6t6\assembler\project_2\ramvars.asm
Temp12                                000C         no  WORD  Internal   ABS     14  private  text         0     0  e:\stm_project\stm8s105c6t6\assembler\project_2\ramvars.asm
Temp13                                000F         no  WORD  Internal   ABS     17  private  text         0     0  e:\stm_project\stm8s105c6t6\assembler\project_2\ramvars.asm
Temp14                                0010         no  WORD  Internal   ABS     18  private  text         0     0  e:\stm_project\stm8s105c6t6\assembler\project_2\ramvars.asm
Temp15                                0011         no  WORD  Internal   ABS     19  private  text         0     0  e:\stm_project\stm8s105c6t6\assembler\project_2\ramvars.asm
Temp16                                0012         no  WORD  Internal   ABS     20  private  text         0     0  e:\stm_project\stm8s105c6t6\assembler\project_2\ramvars.asm
Temp17                                0013         no  WORD  Internal   ABS     21  private  text         0     0  e:\stm_project\stm8s105c6t6\assembler\project_2\ramvars.asm
Temp18                                0014         no  WORD  Internal   ABS     22  private  text         0     0  e:\stm_project\stm8s105c6t6\assembler\project_2\ramvars.asm
Temp19                                0015         no  WORD  Internal   ABS     23  private  text         0     0  e:\stm_project\stm8s105c6t6\assembler\project_2\ramvars.asm
Temp20                                0016         no  WORD  Internal   ABS     24  private  text         0     0  e:\stm_project\stm8s105c6t6\assembler\project_2\ramvars.asm
Temp21                                0017         no  WORD  Internal   ABS     25  private  text         0     0  e:\stm_project\stm8s105c6t6\assembler\project_2\ramvars.asm
Temp22                                0018         no  WORD  Internal   ABS     26  private  text         0     0  e:\stm_project\stm8s105c6t6\assembler\project_2\ramvars.asm
Temp23                                0019         no  WORD  Internal   ABS     27  private  text         0     0  e:\stm_project\stm8s105c6t6\assembler\project_2\ramvars.asm
Temp24                                001A         no  WORD  Internal   ABS     28  private  text         0     0  e:\stm_project\stm8s105c6t6\assembler\project_2\ramvars.asm
Temp25                                0037         no  WORD  Internal   ABS     63  private  text         0     0  e:\stm_project\stm8s105c6t6\assembler\project_2\ramvars.asm
Temp26                                0038         no  WORD  Internal   ABS     64  private  text         0     0  e:\stm_project\stm8s105c6t6\assembler\project_2\ramvars.asm
Temp27                                0039         no  WORD  Internal   ABS     65  private  text         0     0  e:\stm_project\stm8s105c6t6\assembler\project_2\ramvars.asm
Temp71                                004E         no  WORD  Internal   ABS     88  private  text         0     0  e:\stm_project\stm8s105c6t6\assembler\project_2\ramvars.asm
Timer1                                921C         no  WORD  Internal   ABS    126  private  textdata    12     0  -
Timer2                                9228         no  WORD  Internal   ABS    134  private  textdata     5     0  -
Timer3                                922D         no  WORD  Internal   ABS    141  private  textdata    11     0  -
Timer4                                9238         no  WORD  Internal   ABS    149  private  textdata    20     0  -

UART1_SR                              5230         no  WORD  Internal   ABS     65  private  undef        0     0  e:\stm_project\stm8s105c6t6\assembler\project_2\stm8s105c6.asm
UART1_DR                              5231         no  WORD  Internal   ABS     66  private  undef        0     0  e:\stm_project\stm8s105c6t6\assembler\project_2\stm8s105c6.asm
UART1_BRR1                            5232         no  WORD  Internal   ABS     67  private  undef        0     0  e:\stm_project\stm8s105c6t6\assembler\project_2\stm8s105c6.asm
UART1_BRR2                            5233         no  WORD  Internal   ABS     68  private  undef        0     0  e:\stm_project\stm8s105c6t6\assembler\project_2\stm8s105c6.asm
UART1_CR1                             5234         no  WORD  Internal   ABS     69  private  undef        0     0  e:\stm_project\stm8s105c6t6\assembler\project_2\stm8s105c6.asm
UART1_CR2                             5235         no  WORD  Internal   ABS     70  private  undef        0     0  e:\stm_project\stm8s105c6t6\assembler\project_2\stm8s105c6.asm
UART1_CR3                             5236         no  WORD  Internal   ABS     71  private  undef        0     0  e:\stm_project\stm8s105c6t6\assembler\project_2\stm8s105c6.asm
UART1_CR4                             5237         no  WORD  Internal   ABS     72  private  undef        0     0  e:\stm_project\stm8s105c6t6\assembler\project_2\stm8s105c6.asm
UART1_CR5                             5238         no  WORD  Internal   ABS     73  private  undef        0     0  e:\stm_project\stm8s105c6t6\assembler\project_2\stm8s105c6.asm
UART1_GTR                             5239         no  WORD  Internal   ABS     74  private  undef        0     0  e:\stm_project\stm8s105c6t6\assembler\project_2\stm8s105c6.asm
UART1_PSCR                            523A         no  WORD  Internal   ABS     75  private  undef        0     0  e:\stm_project\stm8s105c6t6\assembler\project_2\stm8s105c6.asm
UIF                                   0000         no  WORD  Internal   ABS    138  private  undef        0     0  e:\stm_project\stm8s105c6t6\assembler\project_2\stm8s105c6.asm
UpdateRTCFlag                         80AA         no  WORD  Internal   ABS    109  private  text         0     0  e:\stm_project\stm8s105c6t6\assembler\project_2\ramvars.asm
UpdateKeyboard                        80AA         no  WORD  Internal   ABS      4  private  textdata    31     0  e:\stm_project\stm8s105c6t6\assembler\project_2\matrixkeyboard.asm
UpdateKeyboardFlag                    8176         no  WORD  Internal   ABS    141  private  textdata     5     0  e:\stm_project\stm8s105c6t6\assembler\project_2\matrixkeyboard.asm
UpdateRTC                             9123         no  WORD  Internal   ABS     68  private  textdata    22     0  e:\stm_project\stm8s105c6t6\assembler\project_2\analogclock.asm
UpdateRenderFlag                      9140         no  WORD  Internal   ABS     87  private  textdata     5     0  e:\stm_project\stm8s105c6t6\assembler\project_2\analogclock.asm

Var1                                  0035         no  WORD  Internal   ABS     60  private  text         0     0  e:\stm_project\stm8s105c6t6\assembler\project_2\ramvars.asm
Var2                                  0036         no  WORD  Internal   ABS     61  private  text         0     0  e:\stm_project\stm8s105c6t6\assembler\project_2\ramvars.asm
Var3                                  0045         no  WORD  Internal   ABS     80  private  text         0     0  e:\stm_project\stm8s105c6t6\assembler\project_2\ramvars.asm
Var4                                  0046         no  WORD  Internal   ABS     81  private  text         0     0  e:\stm_project\stm8s105c6t6\assembler\project_2\ramvars.asm
Var5                                  004B         no  WORD  Internal   ABS     85  private  text         0     0  e:\stm_project\stm8s105c6t6\assembler\project_2\ramvars.asm
Vector0_59                            87A9         no  WORD  Internal   ABS     43  private  textdata    12     0  e:\stm_project\stm8s105c6t6\assembler\project_2\basicmath.asm
Vector60_119                          87B5         no  WORD  Internal   ABS     52  private  textdata    24     0  e:\stm_project\stm8s105c6t6\assembler\project_2\basicmath.asm
STMicroelectronics list file postprocessor v1.01   (C)2009-2014   Sun Jul 06 23:27:10 2014
Page 62  Assembler
                                               e:\stm_project\stm8s105c6t6\assembler\project_2\general.asm

Vector120_179                         87CD         no  WORD  Internal   ABS     67  private  textdata    18     0  e:\stm_project\stm8s105c6t6\assembler\project_2\basicmath.asm
Vector180_239                         87DF         no  WORD  Internal   ABS     79  private  textdata    24     0  e:\stm_project\stm8s105c6t6\assembler\project_2\basicmath.asm
Vector0                               881C         no  WORD  Internal   ABS    118  private  textdata     9     0  e:\stm_project\stm8s105c6t6\assembler\project_2\basicmath.asm
Vector1                               8825         no  WORD  Internal   ABS    122  private  textdata     8     0  e:\stm_project\stm8s105c6t6\assembler\project_2\basicmath.asm
Vector_1                              882D         no  WORD  Internal   ABS    126  private  textdata     8     0  e:\stm_project\stm8s105c6t6\assembler\project_2\basicmath.asm
Vector0_592                           884B         no  WORD  Internal   ABS    150  private  textdata    18     0  e:\stm_project\stm8s105c6t6\assembler\project_2\basicmath.asm
Vector60_1192                         885D         no  WORD  Internal   ABS    162  private  textdata    18     0  e:\stm_project\stm8s105c6t6\assembler\project_2\basicmath.asm
Vector120_1792                        886F         no  WORD  Internal   ABS    174  private  textdata    24     0  e:\stm_project\stm8s105c6t6\assembler\project_2\basicmath.asm
Vector180_2392                        8887         no  WORD  Internal   ABS    189  private  textdata    18     0  e:\stm_project\stm8s105c6t6\assembler\project_2\basicmath.asm

WWDG_CR                               50D1         no  WORD  Internal   ABS     95  private  undef        0     0  e:\stm_project\stm8s105c6t6\assembler\project_2\stm8s105c6.asm
WWDG_WR                               50D2         no  WORD  Internal   ABS     96  private  undef        0     0  e:\stm_project\stm8s105c6t6\assembler\project_2\stm8s105c6.asm
WidthS                                003D         no  WORD  Internal   ABS     71  private  text         0     0  e:\stm_project\stm8s105c6t6\assembler\project_2\ramvars.asm
WriteStatusKeyboard                   80F2         no  WORD  Internal   ABS     45  private  textdata    13     0  e:\stm_project\stm8s105c6t6\assembler\project_2\matrixkeyboard.asm
Wait1                                 897C         no  WORD  Internal   ABS     31  private  text        14     0  e:\stm_project\stm8s105c6t6\assembler\project_2\lcdnokia.asm
Wait2                                 898A         no  WORD  Internal   ABS     39  private  text        11     0  e:\stm_project\stm8s105c6t6\assembler\project_2\lcdnokia.asm

X_L                                   7F05         no  WORD  Internal   ABS    217  private  undef        0     0  e:\stm_project\stm8s105c6t6\assembler\project_2\stm8s105c6.asm
X_H                                   7F04         no  WORD  Internal   ABS    218  private  undef        0     0  e:\stm_project\stm8s105c6t6\assembler\project_2\stm8s105c6.asm
XStart                                001B         no  WORD  Internal   ABS     30  private  text         0     0  e:\stm_project\stm8s105c6t6\assembler\project_2\ramvars.asm
XEnd                                  001D         no  WORD  Internal   ABS     32  private  text         0     0  e:\stm_project\stm8s105c6t6\assembler\project_2\ramvars.asm
XS                                    002F         no  WORD  Internal   ABS     54  private  text         0     0  e:\stm_project\stm8s105c6t6\assembler\project_2\ramvars.asm
XE                                    0033         no  WORD  Internal   ABS     58  private  text         0     0  e:\stm_project\stm8s105c6t6\assembler\project_2\ramvars.asm
XT                                    0043         no  WORD  Internal   ABS     78  private  text         0     0  e:\stm_project\stm8s105c6t6\assembler\project_2\ramvars.asm

Y_L                                   7F07         no  WORD  Internal   ABS    219  private  undef        0     0  e:\stm_project\stm8s105c6t6\assembler\project_2\stm8s105c6.asm
Y_H                                   7F06         no  WORD  Internal   ABS    220  private  undef        0     0  e:\stm_project\stm8s105c6t6\assembler\project_2\stm8s105c6.asm
YStart                                001C         no  WORD  Internal   ABS     31  private  text         0     0  e:\stm_project\stm8s105c6t6\assembler\project_2\ramvars.asm
YEnd                                  001E         no  WORD  Internal   ABS     33  private  text         0     0  e:\stm_project\stm8s105c6t6\assembler\project_2\ramvars.asm
YS                                    0030         no  WORD  Internal   ABS     55  private  text         0     0  e:\stm_project\stm8s105c6t6\assembler\project_2\ramvars.asm
YE                                    0034         no  WORD  Internal   ABS     59  private  text         0     0  e:\stm_project\stm8s105c6t6\assembler\project_2\ramvars.asm
YT                                    0044         no  WORD  Internal   ABS     79  private  text         0     0  e:\stm_project\stm8s105c6t6\assembler\project_2\ramvars.asm

dX                                    001F         no  WORD  Internal   ABS     34  private  text         0     0  e:\stm_project\stm8s105c6t6\assembler\project_2\ramvars.asm
dY                                    0020         no  WORD  Internal   ABS     35  private  text         0     0  e:\stm_project\stm8s105c6t6\assembler\project_2\ramvars.asm

lSin                                  8793         no  WORD  Internal   ABS     31  private  textdata    22     0  e:\stm_project\stm8s105c6t6\assembler\project_2\basicmath.asm
lCos                                  8835         no  WORD  Internal   ABS    138  private  textdata    22     0  e:\stm_project\stm8s105c6t6\assembler\project_2\basicmath.asm
lProjectionXY                         8911         no  WORD  Internal   ABS    217  private  textdata    42     0  e:\stm_project\stm8s105c6t6\assembler\project_2\basicmath.asm
lSetBit                               8958         no  WORD  Internal   ABS    250  private  textdata     9     0  e:\stm_project\stm8s105c6t6\assembler\project_2\basicmath.asm
lSetBit2                              8961         no  WORD  Internal   ABS    255  private  textdata     8     0  e:\stm_project\stm8s105c6t6\assembler\project_2\basicmath.asm
lSendToLCD                            896E         no  WORD  Internal   ABS     23  private  text        14     0  e:\stm_project\stm8s105c6t6\assembler\project_2\lcdnokia.asm
lDrawFillRect                         8995         no  WORD  Internal   ABS     55  private  text       117     0  e:\stm_project\stm8s105c6t6\assembler\project_2\lcdnokia.asm
lDrawPoint                            8A22         no  WORD  Internal   ABS    139  private  text       102     0  e:\stm_project\stm8s105c6t6\assembler\project_2\lcdnokia.asm
lDrawLine                             8BF6         no  WORD  Internal   ABS    306  private  text        22     0  e:\stm_project\stm8s105c6t6\assembler\project_2\lcdnokia.asm
lDrawSymbol                           8CC9         no  WORD  Internal   ABS    416  private  text       133     0  e:\stm_project\stm8s105c6t6\assembler\project_2\lcdnokia.asm
lDrawText                             8DC2         no  WORD  Internal   ABS    564  private  text        19     0  e:\stm_project\stm8s105c6t6\assembler\project_2\lcdnokia.asm

pdX                                   0023         no  WORD  Internal   ABS     38  private  text         0     0  e:\stm_project\stm8s105c6t6\assembler\project_2\ramvars.asm
pdY                                   0024         no  WORD  Internal   ABS     39  private  text         0     0  e:\stm_project\stm8s105c6t6\assembler\project_2\ramvars.asm


422 labels
No errors on assembly of 'e:\stm_project\stm8s105c6t6\assembler\project_2\general.asm'